"File: Ball_Machine_Main_v5.c  Assembler  Version HGASM0202      Page 1


   1  0000              ; Generated by holtek-gcc v3.19, Thu Oct 27 08:34:51 2022
   2  0000              ; 
   3  0000              ; Configuration:
   4  0000              ;       with long instruction
   5  0000              ;       Multi-ROM, Multi-RAM
   6  0000              ;       bits_per_rom_unit:16
   7  0000              ;       with mp1
   8  0000              ;       with tbhp, address(0x9)
   9  0000              ;          Use tabrd-const
  10  0000              ;       
  11  0000              ; SFR address of long-instruction arch:
  12  0000              ;    mp0 = -1,1,0
  13  0000              ;    mp1 = 4,3,2
  14  0000              ;    mp2 = 14,13,12
  15  0000              ;    tbp = 9,7,8
  16  0000              ;    acc = 5
  17  0000              ;    pcl = 6
  18  0000              ;    status = 10
  19  0000              ;    bp = 11
  20  0000              ;    intc = 16
  21  0000              ;       
  22  0000              ;       
  23  0000              ; use 'tabrdc' instead of 'tabrd'
  24  0000              ;       
  25  0000              
  26  0000              #pragma translator "holtek-gcc 4.6.4" "3.19" "build 20130711"
  27  0000              ; Rebuild 718
  28  0000              
  29  0000              ir equ [2]
  30  0000              mp equ [3]
  31  0000              sbp equ [4]
  32  0000              acc equ [5]
  33  0000              bp equ [11]
  34  0000              tblp equ [7]
  35  0000              tbhp equ [9]
  36  0000              status equ [10]
  37  0000              c equ [10].0
  38  0000              ac equ [10].1
  39  0000              z equ [10].2
  40  0000              ov equ [10].3
  41  0000              cz equ [10].6
  42  0000              sc equ [10].7
  43  0000              intc equ [16]
  44  0000              mduwr0 equ [59h]
  45  0000              mduwr1 equ [5ah]
  46  0000              mduwr2 equ [5bh]
  47  0000              mduwr3 equ [5ch]
  48  0000              mduwr4 equ [5dh]
  49  0000              mduwr5 equ [5eh]
  50  0000              mduwrctrl equ [5fh]
  51  0000              
  52  0000              extern ra:byte
  53  0000              extern rb:byte
  54  0000              extern rc:byte
  55  0000              extern rd:byte
  56  0000              extern re:byte
  57  0000              extern rf:byte
  58  0000              extern rg:byte
  59  0000              extern rh:byte
"File: Ball_Machine_Main_v5.ASM  Assembler  Version HGASM0202      Page 2

  60  0000              extern _Crom2Prom:near
  61  0000              extern _Crom2PromNext:near
  62  0000              
  63  0000              RAMBANK 0 @BITDATASEC, @BITDATASEC1
  64  0000              @HCCINIT	.section 'data'
  65  0000              @HCCINIT0	.section 'data'
  66  0000              @BITDATASEC	 .section 'data'
  67  0000              @BITDATASEC1	 .section 'data'
  68  0000              
  69  0000              #pragma debug scope 1 1
  70  0000              	extern __DELAY3:near
  71  0000              	extern __DELAYX3:near
  72  0000              	extern __DELAYX6:near
  73  0000              	extern __DELAYY5:near
  74  0000              	extern __DELAYY3:near
  75  0000              	extern _builtin_holtek_delay_2:byte
  76  0000              ___stm0c0 equ [78]
  77  0000              ___stm0c1 equ [79]
  78  0000              ___stm0rp equ [84]
  79  0000              ___stm0al equ [82]
  80  0000              ___stm0ah equ [83]
  81  0000              ___stm1c0 equ [306]
  82  0000              ___stm1c1 equ [307]
  83  0000              ___stm1rp equ [312]
  84  0000              ___stm1al equ [310]
  85  0000              ___stm1ah equ [311]
  86  0000              ___stm2c0 equ [313]
  87  0000              ___stm2c1 equ [314]
  88  0000              ___stm2rp equ [319]
  89  0000              ___stm2al equ [317]
  90  0000              ___stm2ah equ [318]
  91  0000              ___pcs1 equ [338]
  92  0000              ___pds0 equ [339]
  93  0000              ___pfs1 equ [344]
  94  0000              public _Timer_setup
  95  0000              #pragma debug scope 2 1

 169  0000              #line 169 "D:\Wade\Project\Tennis_Ball_Machine\Firmware\Ball_Machine_Main_v5\Ball_Machine_Main_v5.c"
 169  0000              _Timer_setup .section 'code'
 169  0000              _Timer_setup proc
 171  0000              #line 171 "D:\Wade\Project\Tennis_Ball_Machine\Firmware\Ball_Machine_Main_v5\Ball_Machine_Main_v5.c"
 171  0000  0F20        	mov a,32
 171  0001  00CE        	mov [78],a
 172  0002              #line 172 "D:\Wade\Project\Tennis_Ball_Machine\Firmware\Ball_Machine_Main_v5\Ball_Machine_Main_v5.c"
 172  0002  0FA8        	mov a,168
 172  0003  00CF        	mov [79],a
 173  0004              #line 173 "D:\Wade\Project\Tennis_Ball_Machine\Firmware\Ball_Machine_Main_v5\Ball_Machine_Main_v5.c"
 173  0004  0F02        	mov a,2
 173  0005  00D4        	mov [84],a
 174  0006              #line 174 "D:\Wade\Project\Tennis_Ball_Machine\Firmware\Ball_Machine_Main_v5\Ball_Machine_Main_v5.c"
 174  0006  1F52        	clr [82]
 174  0007  1F53        	clr [83]
 177  0008              #line 177 "D:\Wade\Project\Tennis_Ball_Machine\Firmware\Ball_Machine_Main_v5\Ball_Machine_Main_v5.c"
 177  0008  0F20        	mov a,32
 177  0009  80B2 0001   	lmov [306],a
 178  000B              #line 178 "D:\Wade\Project\Tennis_Ball_Machine\Firmware\Ball_Machine_Main_v5\Ball_Machine_Main_v5.c"
 178  000B  0FA8        	mov a,168
 178  000C  80B3 0001   	lmov [307],a
 179  000E              #line 179 "D:\Wade\Project\Tennis_Ball_Machine\Firmware\Ball_Machine_Main_v5\Ball_Machine_Main_v5.c"
 179  000E  0F02        	mov a,2
"File: Ball_Machine_Main_v5.c  Assembler  Version HGASM0202      Page 3

 179  000F  80B8 0001   	lmov [312],a
 180  0011              #line 180 "D:\Wade\Project\Tennis_Ball_Machine\Firmware\Ball_Machine_Main_v5\Ball_Machine_Main_v5.c"
 180  0011  9F36 0001   	lclr [310]
 180  0013  9F37 0001   	lclr [311]
 183  0015              #line 183 "D:\Wade\Project\Tennis_Ball_Machine\Firmware\Ball_Machine_Main_v5\Ball_Machine_Main_v5.c"
 183  0015  0F30        	mov a,48
 183  0016  80B9 0001   	lmov [313],a
 184  0018              #line 184 "D:\Wade\Project\Tennis_Ball_Machine\Firmware\Ball_Machine_Main_v5\Ball_Machine_Main_v5.c"
 184  0018  0FA8        	mov a,168
 184  0019  80BA 0001   	lmov [314],a
 185  001B              #line 185 "D:\Wade\Project\Tennis_Ball_Machine\Firmware\Ball_Machine_Main_v5\Ball_Machine_Main_v5.c"
 185  001B  0F0A        	mov a,10
 185  001C  80BF 0001   	lmov [319],a
 186  001E              #line 186 "D:\Wade\Project\Tennis_Ball_Machine\Firmware\Ball_Machine_Main_v5\Ball_Machine_Main_v5.c"
 186  001E  9F3D 0001   	lclr [317]
 186  0020  9F3E 0001   	lclr [318]
 188  0022              #line 188 "D:\Wade\Project\Tennis_Ball_Machine\Firmware\Ball_Machine_Main_v5\Ball_Machine_Main_v5.c"
 188  0022  0F20        	mov a,32
 188  0023  80D2 0001   	lmov [338],a
 189  0025              #line 189 "D:\Wade\Project\Tennis_Ball_Machine\Firmware\Ball_Machine_Main_v5\Ball_Machine_Main_v5.c"
 189  0025  0F02        	mov a,2
 189  0026  80D3 0001   	lmov [339],a
 190  0028              #line 190 "D:\Wade\Project\Tennis_Ball_Machine\Firmware\Ball_Machine_Main_v5\Ball_Machine_Main_v5.c"
 190  0028  0F80        	mov a,128
 190  0029  80D8 0001   	lmov [344],a
 190  002B  0003        	ret
 190  002C              _Timer_setup endp
 190  002C              #line 190 "D:\Wade\Project\Tennis_Ball_Machine\Firmware\Ball_Machine_Main_v5\Ball_Machine_Main_v5.c"
 190  002C              #pragma debug scope 1 1
 190  002C              ___integ equ [57]
 190  002C              ___intc0 equ [16]
 190  002C              ___pac equ [21]
 190  002C              ___papu equ [22]
 190  002C              public _Sensor_switch
 190  002C              #pragma debug scope 3 1
 205  002C              #line 205 "D:\Wade\Project\Tennis_Ball_Machine\Firmware\Ball_Machine_Main_v5\Ball_Machine_Main_v5.c"
 205  0000              _Sensor_switch .section 'code'
 205  0000              _Sensor_switch proc
 205  0000  00              local _Sensor_switch_2 db 1 dup(?)	; 0,1
 205  0000  0080     E  	mov ra,a
 205  0001  0080     R  	mov _Sensor_switch_2[0],a
 205  0002              #pragma debug variable 7 3 _Sensor_switch_2+0 "m"
 206  0002              #line 206 "D:\Wade\Project\Tennis_Ball_Machine\Firmware\Ball_Machine_Main_v5\Ball_Machine_Main_v5.c"
 206  0002  0700     E  	mov a,ra
 206  0003  0A49        	sub a,73
 206  0004  390A        	snz z
 206  0005  2800     R  	jmp _L3
 206  0006              #pragma debug scope 4 3
 206  0006              ;begin block, line: 206.-1
 206  0006              #pragma debug scope 5 4
 206  0006              ;begin block, line: 206.-1
 208  0006              #line 208 "D:\Wade\Project\Tennis_Ball_Machine\Firmware\Ball_Machine_Main_v5\Ball_Machine_Main_v5.c"
 208  0006  3139        	set [57].2
 209  0007              #line 209 "D:\Wade\Project\Tennis_Ball_Machine\Firmware\Ball_Machine_Main_v5\Ball_Machine_Main_v5.c"
 209  0007  3690        	clr [16].5
 210  0008              #line 210 "D:\Wade\Project\Tennis_Ball_Machine\Firmware\Ball_Machine_Main_v5\Ball_Machine_Main_v5.c"
 210  0008  3110        	set [16].2
 210  0009  2800     R  	jmp _L2
 210  000A              _L3:
 210  000A              #pragma debug scope 4 3
"File: Ball_Machine_Main_v5.c  Assembler  Version HGASM0202      Page 4

 210  000A              #pragma debug scope 3 1
 214  000A              #line 214 "D:\Wade\Project\Tennis_Ball_Machine\Firmware\Ball_Machine_Main_v5\Ball_Machine_Main_v5.c"
 214  000A  3510        	clr [16].2
 215  000B              #line 215 "D:\Wade\Project\Tennis_Ball_Machine\Firmware\Ball_Machine_Main_v5\Ball_Machine_Main_v5.c"
 215  000B  3195        	set [21].3
 216  000C              #line 216 "D:\Wade\Project\Tennis_Ball_Machine\Firmware\Ball_Machine_Main_v5\Ball_Machine_Main_v5.c"
 216  000C  3196        	set [22].3
 216  000D              _L2:
 216  000D  0003        	ret
 216  000E              _Sensor_switch endp
 216  000E              #line 216 "D:\Wade\Project\Tennis_Ball_Machine\Firmware\Ball_Machine_Main_v5\Ball_Machine_Main_v5.c"
 216  000E              #pragma debug scope 1 1
 216  000E              ___pas1 equ [334]
 216  000E              ___u0cr1 equ [273]
 216  000E              ___u0cr2 equ [274]
 216  000E              ___brg0 equ [276]
 216  000E              ___mfi5 equ [56]
 216  000E              ___intc3 equ [19]
 216  000E              public _UART_Setup
 216  000E              #pragma debug scope 6 1
 221  000E              #line 221 "D:\Wade\Project\Tennis_Ball_Machine\Firmware\Ball_Machine_Main_v5\Ball_Machine_Main_v5.c"
 221  0000              _UART_Setup .section 'code'
 221  0000              _UART_Setup proc
 222  0000              #line 222 "D:\Wade\Project\Tennis_Ball_Machine\Firmware\Ball_Machine_Main_v5\Ball_Machine_Main_v5.c"
 222  0000  0FF0        	mov a,240
 222  0001  80CE 0001   	lmov [334],a
 223  0003              #line 223 "D:\Wade\Project\Tennis_Ball_Machine\Firmware\Ball_Machine_Main_v5\Ball_Machine_Main_v5.c"
 223  0003  0F80        	mov a,128
 223  0004  8091 0001   	lmov [273],a
 224  0006              #line 224 "D:\Wade\Project\Tennis_Ball_Machine\Firmware\Ball_Machine_Main_v5\Ball_Machine_Main_v5.c"
 224  0006  0FC4        	mov a,196
 224  0007  8092 0001   	lmov [274],a
 225  0009              #line 225 "D:\Wade\Project\Tennis_Ball_Machine\Firmware\Ball_Machine_Main_v5\Ball_Machine_Main_v5.c"
 225  0009  0F0C        	mov a,12
 225  000A  8094 0001   	lmov [276],a
 226  000C              #line 226 "D:\Wade\Project\Tennis_Ball_Machine\Firmware\Ball_Machine_Main_v5\Ball_Machine_Main_v5.c"
 226  000C  3038        	set [56].0
 227  000D              #line 227 "D:\Wade\Project\Tennis_Ball_Machine\Firmware\Ball_Machine_Main_v5\Ball_Machine_Main_v5.c"
 227  000D  3638        	clr [56].4
 228  000E              #line 228 "D:\Wade\Project\Tennis_Ball_Machine\Firmware\Ball_Machine_Main_v5\Ball_Machine_Main_v5.c"
 228  000E  3193        	set [19].3
 229  000F              #line 229 "D:\Wade\Project\Tennis_Ball_Machine\Firmware\Ball_Machine_Main_v5\Ball_Machine_Main_v5.c"
 229  000F  3010        	set [16].0
 229  0010  0003        	ret
 229  0011              _UART_Setup endp
 229  0011              #line 229 "D:\Wade\Project\Tennis_Ball_Machine\Firmware\Ball_Machine_Main_v5\Ball_Machine_Main_v5.c"
 229  0011              #pragma debug scope 1 1
 229  0011              ___u0sr equ [272]
 229  0011              ___txr_rxr0 equ [275]
 229  0011              public _Read_Data
 229  0011              #pragma debug scope 7 1
 233  0011              #line 233 "D:\Wade\Project\Tennis_Ball_Machine\Firmware\Ball_Machine_Main_v5\Ball_Machine_Main_v5.c"
 233  0000              _Read_Data .section 'code'
 233  0000              _Read_Data proc
 233  0000              _L9:
 234  0000              #line 234 "D:\Wade\Project\Tennis_Ball_Machine\Firmware\Ball_Machine_Main_v5\Ball_Machine_Main_v5.c"
 234  0000  B990 0001   	lsnz [272].3
 234  0002  2800     R  	jmp _L9
 235  0003              #line 235 "D:\Wade\Project\Tennis_Ball_Machine\Firmware\Ball_Machine_Main_v5\Ball_Machine_Main_v5.c"
 235  0003  0700     R  	mov a,_kn[0]
"File: Ball_Machine_Main_v5.c  Assembler  Version HGASM0202      Page 5

 235  0004  0080     E  	mov rb,a
 235  0005  0700     R  	mov a,_kn[1]
 235  0006  0080     E  	mov rc,a
 235  0007  8713 0001   	lmov a,[275]
 235  0009  0080     E  	mov ra,a
 235  000A  0F00     R  	mov a,low offset _R_Data
 235  000B  0300     E  	add a,rb
 235  000C  0083        	mov mp,a
 235  000D  0F00     R  	mov a,high offset _R_Data
 235  000E  1300     E  	adc a,rc
 235  000F  0084        	mov sbp,a
 235  0010  0700     E  	mov a,ra
 235  0011  0082        	mov ir,a
 236  0012              #line 236 "D:\Wade\Project\Tennis_Ball_Machine\Firmware\Ball_Machine_Main_v5\Ball_Machine_Main_v5.c"
 236  0012  0700     E  	mov a,ra
 236  0013  0A2F        	sub a,47
 236  0014  3D0A        	sz z
 236  0015  2800     R  	jmp _L10
 236  0016  0F09        	mov a,9
 236  0017  0200     E  	sub a,rb
 236  0018  0F00        	mov a,0
 236  0019  1200     E  	sbc a,rc
 236  001A  3C0A        	sz c
 236  001B  2800     R  	jmp _L11
 236  001C              _L10:
 236  001C  1F00     R  	clr _kn[0]
 236  001D  1F00     R  	clr _kn[1]
 236  001E  2800     R  	jmp _L7
 236  001F              _L11:
 237  001F              #line 237 "D:\Wade\Project\Tennis_Ball_Machine\Firmware\Ball_Machine_Main_v5\Ball_Machine_Main_v5.c"
 237  001F  0F01        	mov a,1
 237  0020  0300     E  	add a,rb
 237  0021  0080     R  	mov _kn[0],a
 237  0022  0F00        	mov a,0
 237  0023  1300     E  	adc a,rc
 237  0024  0080     R  	mov _kn[1],a
 237  0025              _L7:
 237  0025  0003        	ret
 237  0026              _Read_Data endp
 237  0026              #line 237 "D:\Wade\Project\Tennis_Ball_Machine\Firmware\Ball_Machine_Main_v5\Ball_Machine_Main_v5.c"
 237  0026              #pragma debug scope 1 1
 237  0026              public _Uart_R
 237  0026              #pragma debug scope 8 1
 194  0026              #line 194 "D:\Wade\Project\Tennis_Ball_Machine\Firmware\Ball_Machine_Main_v5\Ball_Machine_Main_v5.c"
 194  0026              rombank 0 @Uart_R_code
 194  0000              @Uart_R_code .section at 60 'code'
 194  0000  0080     E  	mov r1,a
 194  0001  070B        	mov a,bp
 194  0002  1F0B        	clr bp
 194  0003  2800     R  	jmp _Uart_R
 194  0004              ROMBANK 0 _Uart_R
 194  0004              #pragma debug scope 1 1
 194  0004              @dummy60 endp
 194  0004              #pragma debug scope 9 1
 194  0000              _Uart_R .section 'code'
 194  0000              _Uart_R proc
 194  0000  0080     E  	mov r2,a
 194  0001  070A        	mov a, status
 194  0002  0080     E  	mov r3,a
 194  0003  0703        	mov a,mp
"File: Ball_Machine_Main_v5.c  Assembler  Version HGASM0202      Page 6

 194  0004  0080     E  	mov r4,a
 194  0005  0704        	mov a,sbp
 194  0006  0080     E  	mov r5,a
 194  0007  0707        	mov a,tblp
 194  0008  0080     E  	mov r6,a
 194  0009  0709        	mov a,tbhp
 194  000A  0080     E  	mov r7,a
 195  000B              #line 195 "D:\Wade\Project\Tennis_Ball_Machine\Firmware\Ball_Machine_Main_v5\Ball_Machine_Main_v5.c"
 195  000B              	fcall _Read_Data
 196  0012              #line 196 "D:\Wade\Project\Tennis_Ball_Machine\Firmware\Ball_Machine_Main_v5\Ball_Machine_Main_v5.c"
 196  0012  3638        	clr [56].4
 196  0013  0700     E  	mov a,r2
 196  0014  008B        	mov bp,a
 196  0015  0700     E  	mov a,r3
 196  0016  008A        	mov status,a
 196  0017  0700     E  	mov a,r4
 196  0018  0083        	mov mp,a
 196  0019  0700     E  	mov a,r5
 196  001A  0084        	mov sbp,a
 196  001B  0700     E  	mov a,r6
 196  001C  0087        	mov tblp,a
 196  001D  0700     E  	mov a,r7
 196  001E  0089        	mov tbhp,a
 196  001F  1D05        	tabrdc acc
 196  0020  0700     E  	mov a,r1
 196  0021  0004        	reti
 196  0022              _Uart_R endp
 196  0022              
 196  0022              #line 196 "D:\Wade\Project\Tennis_Ball_Machine\Firmware\Ball_Machine_Main_v5\Ball_Machine_Main_v5.c"
 196  0022              #pragma debug scope 1 1
 196  0022              public _Send_Data
 196  0022              #pragma debug scope 10 1
 241  0022              #line 241 "D:\Wade\Project\Tennis_Ball_Machine\Firmware\Ball_Machine_Main_v5\Ball_Machine_Main_v5.c"
 241  0000              _Send_Data .section 'code'
 241  0000              _Send_Data proc
 241  0000  00              local _Send_Data_2 db 1 dup(?)	; 0,1
 241  0000  0080     R  	mov _Send_Data_2[0],a
 241  0001              #pragma debug variable 7 10 _Send_Data_2+0 "data"
 241  0001              _L19:
 242  0001              #line 242 "D:\Wade\Project\Tennis_Ball_Machine\Firmware\Ball_Machine_Main_v5\Ball_Machine_Main_v5.c"
 242  0001  B810 0001   	lsnz [272].0
 242  0003  2800     R  	jmp _L19
 243  0004              #line 243 "D:\Wade\Project\Tennis_Ball_Machine\Firmware\Ball_Machine_Main_v5\Ball_Machine_Main_v5.c"
 243  0004  0700     R  	mov a,_Send_Data_2[0]
 243  0005  8093 0001   	lmov [275],a
 243  0007              _L21:
 244  0007              #line 244 "D:\Wade\Project\Tennis_Ball_Machine\Firmware\Ball_Machine_Main_v5\Ball_Machine_Main_v5.c"
 244  0007  B890 0001   	lsnz [272].1
 244  0009  2800     R  	jmp _L21
 244  000A  0003        	ret
 244  000B              _Send_Data endp
 244  000B              #line 244 "D:\Wade\Project\Tennis_Ball_Machine\Firmware\Ball_Machine_Main_v5\Ball_Machine_Main_v5.c"
 244  000B              #pragma debug scope 1 1
 244  000B              public _Sen
 244  000B              #pragma debug scope 11 1
 200  000B              #line 200 "D:\Wade\Project\Tennis_Ball_Machine\Firmware\Ball_Machine_Main_v5\Ball_Machine_Main_v5.c"
 200  000B              rombank 0 @Sen_code
 200  0000              @Sen_code .section at 8 'code'
 200  0000  0080     E  	mov r1,a
 200  0001  070B        	mov a,bp
"File: Ball_Machine_Main_v5.c  Assembler  Version HGASM0202      Page 7

 200  0002  1F0B        	clr bp
 200  0003  2800     R  	jmp _Sen
 200  0004              ROMBANK 0 _Sen
 200  0004              #pragma debug scope 1 1
 200  0004              @dummy8 endp
 200  0004              #pragma debug scope 12 1
 200  0000              _Sen .section 'code'
 200  0000              _Sen proc
 200  0000  0080     E  	mov r2,a
 200  0001  070A        	mov a, status
 200  0002  0080     E  	mov r3,a
 200  0003  0703        	mov a,mp
 200  0004  0080     E  	mov r4,a
 200  0005  0704        	mov a,sbp
 200  0006  0080     E  	mov r5,a
 200  0007  0707        	mov a,tblp
 200  0008  0080     E  	mov r6,a
 200  0009  0709        	mov a,tbhp
 200  000A  0080     E  	mov r7,a
 201  000B              #line 201 "D:\Wade\Project\Tennis_Ball_Machine\Firmware\Ball_Machine_Main_v5\Ball_Machine_Main_v5.c"
 201  000B  0F53        	mov a,83
 201  000C              	fcall _Send_Data
 201  0013  0700     E  	mov a,r2
 201  0014  008B        	mov bp,a
 201  0015  0700     E  	mov a,r3
 201  0016  008A        	mov status,a
 201  0017  0700     E  	mov a,r4
 201  0018  0083        	mov mp,a
 201  0019  0700     E  	mov a,r5
 201  001A  0084        	mov sbp,a
 201  001B  0700     E  	mov a,r6
 201  001C  0087        	mov tblp,a
 201  001D  0700     E  	mov a,r7
 201  001E  0089        	mov tbhp,a
 201  001F  1D05        	tabrdc acc
 201  0020  0700     E  	mov a,r1
 201  0021  0004        	reti
 201  0022              _Sen endp
 201  0022              
 201  0022              #line 201 "D:\Wade\Project\Tennis_Ball_Machine\Firmware\Ball_Machine_Main_v5\Ball_Machine_Main_v5.c"
 201  0022              #pragma debug scope 1 1
 201  0022              public _delay
 201  0022              #pragma debug scope 13 1
 248  0022              #line 248 "D:\Wade\Project\Tennis_Ball_Machine\Firmware\Ball_Machine_Main_v5\Ball_Machine_Main_v5.c"
 248  0000              _delay .section 'code'
 248  0000              _delay proc
 248  0000              public _delay_2
 248  0000  0002[           local _delay_2 db 2 dup(?)	; 2,0
            00
            ]
 248  0002              #pragma debug variable 10 13 _delay_2+0 "dev"
 250  0002              #line 250 "D:\Wade\Project\Tennis_Ball_Machine\Firmware\Ball_Machine_Main_v5\Ball_Machine_Main_v5.c"
 250  0000  1F00     E  	clr rb
 250  0001  1F00     E  	clr rc
 250  0002              _L24:
 250  0002              #line 250 "D:\Wade\Project\Tennis_Ball_Machine\Firmware\Ball_Machine_Main_v5\Ball_Machine_Main_v5.c"
 250  0002  0700     E  	mov a,rb
 250  0003  0200     R  	sub a,_delay_2[0]
 250  0004  0700     E  	mov a,rc
 250  0005  1200     R  	sbc a,_delay_2[1]
"File: Ball_Machine_Main_v5.c  Assembler  Version HGASM0202      Page 8

 250  0006  3F0A        	sz cz
 250  0007  2800     R  	jmp _L23
 250  0008  1F00     E  	clr ra
 250  0009              _L27:
 252  0009              #line 252 "D:\Wade\Project\Tennis_Ball_Machine\Firmware\Ball_Machine_Main_v5\Ball_Machine_Main_v5.c"
 252  0009              ;# 252 "D:\Wade\Project\Tennis_Ball_Machine\Firmware\Ball_Machine_Main_v5\Ball_Machine_Main_v5.c" 1
 252  0009  0000        	nop
 252  000A  1480     E  	inc ra
 251  000B              #line 251 "D:\Wade\Project\Tennis_Ball_Machine\Firmware\Ball_Machine_Main_v5\Ball_Machine_Main_v5.c"
 251  000B  0700     E  	mov a,ra
 251  000C  0A19        	sub a,25
 251  000D  390A        	snz z
 251  000E  2800     R  	jmp _L27
 250  000F              #line 250 "D:\Wade\Project\Tennis_Ball_Machine\Firmware\Ball_Machine_Main_v5\Ball_Machine_Main_v5.c"
 250  000F  1480     E  	inc rb
 250  0010  3D0A        	sz z
 250  0011  1480     E  	inc rc
 250  0012  2800     R  	jmp _L24
 250  0013              _L23:
 250  0013  0003        	ret
 250  0014              _delay endp
 250  0014              #line 250 "D:\Wade\Project\Tennis_Ball_Machine\Firmware\Ball_Machine_Main_v5\Ball_Machine_Main_v5.c"
 250  0014              #pragma debug scope 1 1
 250  0014              ___wdtc equ [62]
 250  0014              ___scc equ [58]
 250  0014              ___hircc equ [59]
 250  0014              ___pgc equ [40]
 250  0014              ___pg equ [39]
 250  0014              ___phc equ [43]
 250  0014              ___ph equ [42]
 250  0014              ___pa equ [20]
 250  0014              public _main
 250  0014              #pragma debug scope 14 1
  36  0014              #line 36 "D:\Wade\Project\Tennis_Ball_Machine\Firmware\Ball_Machine_Main_v5\Ball_Machine_Main_v5.c"
  36  0014              IFDEF WITH_DEFAULT_STARTUP
  36  0014              extern _main_initial0:near
  36  0014              extern _main_startup:near
  36  0014              ENDIF
  36  0014              
  36  0014              ROMBANK 0 @start
  36  0000              @start .section com_l 'code'
  36  0000              _main_startup1:
  36  0000              @start .section com_e 'code'
  36  0000  0F00     R  	mov a,bank _main
  36  0001  008B        	mov bp,a
  36  0002  2800     R  	jmp _main
  36  0003              
  36  0000              _main .section 'code'
  36  0000              _main proc
  36  0000  0008[           local _main_2 db 8 dup(?)
            00
            ]
  36  0008              #pragma debug variable 7 14 _main_2+7 "stop_flag"
  37  0008              #line 37 "D:\Wade\Project\Tennis_Ball_Machine\Firmware\Ball_Machine_Main_v5\Ball_Machine_Main_v5.c"
  37  0000  0FAB        	mov a,171
  37  0001  00BE        	mov [62],a
  38  0002              #line 38 "D:\Wade\Project\Tennis_Ball_Machine\Firmware\Ball_Machine_Main_v5\Ball_Machine_Main_v5.c"
  38  0002  0F01        	mov a,1
  38  0003  00BA        	mov [58],a
  39  0004              #line 39 "D:\Wade\Project\Tennis_Ball_Machine\Firmware\Ball_Machine_Main_v5\Ball_Machine_Main_v5.c"
"File: Ball_Machine_Main_v5.c  Assembler  Version HGASM0202      Page 9

  39  0004  0F03        	mov a,3
  39  0005  00BB        	mov [59],a
  41  0006              #line 41 "D:\Wade\Project\Tennis_Ball_Machine\Firmware\Ball_Machine_Main_v5\Ball_Machine_Main_v5.c"
  41  0006              	fcall _UART_Setup
  43  000D              #line 43 "D:\Wade\Project\Tennis_Ball_Machine\Firmware\Ball_Machine_Main_v5\Ball_Machine_Main_v5.c"
  43  000D              	fcall _Timer_setup
  44  0014              #line 44 "D:\Wade\Project\Tennis_Ball_Machine\Firmware\Ball_Machine_Main_v5\Ball_Machine_Main_v5.c"
  44  0014  31CE        	set [78].3
  45  0015              #line 45 "D:\Wade\Project\Tennis_Ball_Machine\Firmware\Ball_Machine_Main_v5\Ball_Machine_Main_v5.c"
  45  0015  B1B2 0001   	lset [306].3
  46  0017              #line 46 "D:\Wade\Project\Tennis_Ball_Machine\Firmware\Ball_Machine_Main_v5\Ball_Machine_Main_v5.c"
  46  0017  B1B9 0001   	lset [313].3
  48  0019              #line 48 "D:\Wade\Project\Tennis_Ball_Machine\Firmware\Ball_Machine_Main_v5\Ball_Machine_Main_v5.c"
  48  0019  1F28        	clr [40]
  49  001A              #line 49 "D:\Wade\Project\Tennis_Ball_Machine\Firmware\Ball_Machine_Main_v5\Ball_Machine_Main_v5.c"
  49  001A  1F27        	clr [39]
  50  001B              #line 50 "D:\Wade\Project\Tennis_Ball_Machine\Firmware\Ball_Machine_Main_v5\Ball_Machine_Main_v5.c"
  50  001B  0F49        	mov a,73
  50  001C              	fcall _Sensor_switch
  52  0023              #line 52 "D:\Wade\Project\Tennis_Ball_Machine\Firmware\Ball_Machine_Main_v5\Ball_Machine_Main_v5.c"
  52  0023  3215        	set [21].4
  53  0024              #line 53 "D:\Wade\Project\Tennis_Ball_Machine\Firmware\Ball_Machine_Main_v5\Ball_Machine_Main_v5.c"
  53  0024  3216        	set [22].4
  55  0025              #line 55 "D:\Wade\Project\Tennis_Ball_Machine\Firmware\Ball_Machine_Main_v5\Ball_Machine_Main_v5.c"
  55  0025  342B        	clr [43].0
  56  0026              #line 56 "D:\Wade\Project\Tennis_Ball_Machine\Firmware\Ball_Machine_Main_v5\Ball_Machine_Main_v5.c"
  56  0026  342A        	clr [42].0
  57  0027              #line 57 "D:\Wade\Project\Tennis_Ball_Machine\Firmware\Ball_Machine_Main_v5\Ball_Machine_Main_v5.c"
  57  0027  34AB        	clr [43].1
  58  0028              #line 58 "D:\Wade\Project\Tennis_Ball_Machine\Firmware\Ball_Machine_Main_v5\Ball_Machine_Main_v5.c"
  58  0028  34AA        	clr [42].1
  60  0029              #line 60 "D:\Wade\Project\Tennis_Ball_Machine\Firmware\Ball_Machine_Main_v5\Ball_Machine_Main_v5.c"
  60  0029  0FF4        	mov a,244
  60  002A  00D2        	mov [82],a
  60  002B  0F01        	mov a,1
  60  002C  00D3        	mov [83],a
  61  002D              #line 61 "D:\Wade\Project\Tennis_Ball_Machine\Firmware\Ball_Machine_Main_v5\Ball_Machine_Main_v5.c"
  61  002D  0FC8        	mov a,200
  61  002E  80B6 0001   	lmov [310],a
  61  0030  9F37 0001   	lclr [311]
  62  0032              #line 62 "D:\Wade\Project\Tennis_Ball_Machine\Firmware\Ball_Machine_Main_v5\Ball_Machine_Main_v5.c"
  62  0032  0FBE        	mov a,190
  62  0033  80BD 0001   	lmov [317],a
  62  0035              _L244:
  62  0035              #line 62 "D:\Wade\Project\Tennis_Ball_Machine\Firmware\Ball_Machine_Main_v5\Ball_Machine_Main_v5.c"
  62  0035  9F3E 0001   	lclr [318]
  36  0037              #line 36 "D:\Wade\Project\Tennis_Ball_Machine\Firmware\Ball_Machine_Main_v5\Ball_Machine_Main_v5.c"
  36  0037  1F00     R  	clr _main_2[7]
  36  0038              _L83:
  70  0038              #line 70 "D:\Wade\Project\Tennis_Ball_Machine\Firmware\Ball_Machine_Main_v5\Ball_Machine_Main_v5.c"
  70  0038  0700     R  	mov a,_R_Data[0]
  70  0039  0080     R  	mov _main_2[2],a
  70  003A  0F01        	mov a,1
  70  003B  0080     E  	mov ra,a
  70  003C  0700     R  	mov a,_main_2[2]
  70  003D  0A53        	sub a,83
  70  003E  3D0A        	sz z
  70  003F  2800     R  	jmp _L29
  70  0040  1F00     E  	clr ra
  70  0041              _L29:
"File: Ball_Machine_Main_v5.c  Assembler  Version HGASM0202      Page 10

  70  0041  0700     R  	mov a,_R_Data[1]
  70  0042  0080     R  	mov _main_2[0],a
  70  0043  0700     R  	mov a,_R_Data[2]
  70  0044  0080     R  	mov _main_2[1],a
  70  0045  0700     R  	mov a,_R_Data[3]
  70  0046  0080     R  	mov _main_2[3],a
  70  0047  0F01        	mov a,1
  70  0048  0080     E  	mov rc,a
  70  0049  0700     R  	mov a,_main_2[3]
  70  004A  0A6F        	sub a,111
  70  004B  3D0A        	sz z
  70  004C  2800     R  	jmp _L30
  70  004D  1F00     E  	clr rc
  70  004E              _L30:
  70  004E  0700     R  	mov a,_R_Data[4]
  70  004F  0080     R  	mov _main_2[4],a
  70  0050  0700     R  	mov a,_R_Data[5]
  70  0051  0080     R  	mov _main_2[5],a
  70  0052  0F01        	mov a,1
  70  0053  0080     E  	mov rb,a
  70  0054  0700     R  	mov a,_main_2[0]
  70  0055  0A63        	sub a,99
  70  0056  3D0A        	sz z
  70  0057  2800     R  	jmp _L32
  70  0058  1F00     E  	clr rb
  70  0059              _L32:
  70  0059  0700     E  	mov a,rb
  70  005A  0600     E  	and a,ra
  70  005B  0080     E  	mov rd,a
  70  005C  0F01        	mov a,1
  70  005D  0080     E  	mov rb,a
  70  005E  0700     R  	mov a,_main_2[1]
  70  005F  0A72        	sub a,114
  70  0060  3D0A        	sz z
  70  0061  2800     R  	jmp _L33
  70  0062  1F00     E  	clr rb
  70  0063              _L33:
  70  0063  0700     E  	mov a,rd
  70  0064  0680     E  	andm a,rb
  70  0065  0700     E  	mov a,rb
  70  0066  0600     E  	and a,rc
  70  0067  0080     E  	mov rd,a
  70  0068  0F01        	mov a,1
  70  0069  0080     E  	mov rb,a
  70  006A  0700     R  	mov a,_main_2[4]
  70  006B  0A6C        	sub a,108
  70  006C  3D0A        	sz z
  70  006D  2800     R  	jmp _L34
  70  006E  1F00     E  	clr rb
  70  006F              _L34:
  70  006F  0700     E  	mov a,rd
  70  0070  0680     E  	andm a,rb
  70  0071  1E00     E  	snz rb
  70  0072  2800     R  	jmp _L31
  70  0073  0700     R  	mov a,_main_2[5]
  70  0074  0A6C        	sub a,108
  70  0075  390A        	snz z
  70  0076  2800     R  	jmp _L31
  72  0077              #line 72 "D:\Wade\Project\Tennis_Ball_Machine\Firmware\Ball_Machine_Main_v5\Ball_Machine_Main_v5.c"
  72  0077  0F30        	mov a,48
"File: Ball_Machine_Main_v5.c  Assembler  Version HGASM0202      Page 11

  72  0078  0300     R  	add a,_R_Data[8]
  72  0079  0080     E  	mov rf,a
  72  007A  0FEB        	mov a,235
  72  007B  1F00     E  	clr rg
  72  007C  1380     E  	adcm a,rg
  72  007D  1B10        	rrca intc
  72  007E  3410        	clr intc.0
  72  007F  0700     R  	mov a,_R_Data[6]
  72  0080  00D9        	mov mduwr0,a
  72  0081  0F64        	mov a,100
  72  0082  00DD        	mov mduwr4,a
  72  0083  1F5A        	clr mduwr1
  72  0084  0F00        	mov a,0
  72  0085  00DE        	mov mduwr5,a
  72  0086  0F06        	mov a,6
  72  0087              _LI1:
  72  0087  1785        	sdz acc
  72  0088  2800     R  	jmp _LI1
  72  0089  0759        	mov a,mduwr0
  72  008A  0080     E  	mov rb,a
  72  008B  075A        	mov a,mduwr1
  72  008C  0080     E  	mov rc,a
  72  008D  3C0A        	sz c
  72  008E  3010        	set intc.0
  72  008F  0700     E  	mov a,rb
  72  0090  0380     E  	addm a,rf
  72  0091  0700     E  	mov a,rc
  72  0092  1380     E  	adcm a,rg
  72  0093  0700     R  	mov a,_R_Data[7]
  72  0094  0080     E  	mov rd,a
  72  0095  1F00     E  	clr re
  72  0096  340A        	clr c
  72  0097  1A00     E  	rlca rd
  72  0098  0080     E  	mov rb,a
  72  0099  1A00     E  	rlca re
  72  009A  0080     E  	mov rc,a
  72  009B  340A        	clr c
  72  009C  1A80     E  	rlc rb
  72  009D  1A80     E  	rlc rc
  72  009E  0700     E  	mov a,rb
  72  009F  0380     E  	addm a,rd
  72  00A0  0700     E  	mov a,rc
  72  00A1  1380     E  	adcm a,re
  72  00A2  340A        	clr c
  72  00A3  1A80     E  	rlc rd
  72  00A4  1A80     E  	rlc re
  72  00A5  0700     E  	mov a,rd
  72  00A6  0300     E  	add a,rf
  72  00A7  0080     E  	mov rb,a
  72  00A8  0700     E  	mov a,re
  72  00A9  1300     E  	adc a,rg
  72  00AA  0080     E  	mov rc,a
  73  00AB              #line 73 "D:\Wade\Project\Tennis_Ball_Machine\Firmware\Ball_Machine_Main_v5\Ball_Machine_Main_v5.c"
  73  00AB  0700     E  	mov a,rb
  73  00AC  00D2        	mov [82],a
  73  00AD  0700     E  	mov a,rc
  73  00AE  00D3        	mov [83],a
  74  00AF              #line 74 "D:\Wade\Project\Tennis_Ball_Machine\Firmware\Ball_Machine_Main_v5\Ball_Machine_Main_v5.c"
  74  00AF  302A        	set [42].0
  74  00B0  30AA        	set [42].1
"File: Ball_Machine_Main_v5.c  Assembler  Version HGASM0202      Page 12

  75  00B1              #line 75 "D:\Wade\Project\Tennis_Ball_Machine\Firmware\Ball_Machine_Main_v5\Ball_Machine_Main_v5.c"
  75  00B1  0F0A        	mov a,10
  75  00B2  05A7        	orm a,[39]
  75  00B3  2800     R  	jmp _L245
  75  00B4              _L31:
  78  00B4              #line 78 "D:\Wade\Project\Tennis_Ball_Machine\Firmware\Ball_Machine_Main_v5\Ball_Machine_Main_v5.c"
  78  00B4  0F01        	mov a,1
  78  00B5  0080     E  	mov rb,a
  78  00B6  0700     R  	mov a,_main_2[1]
  78  00B7  0A6F        	sub a,111
  78  00B8  3D0A        	sz z
  78  00B9  2800     R  	jmp _L37
  78  00BA  1F00     E  	clr rb
  78  00BB              _L37:
  78  00BB  0F01        	mov a,1
  78  00BC  0080     E  	mov rd,a
  78  00BD  0700     R  	mov a,_main_2[0]
  78  00BE  0A74        	sub a,116
  78  00BF  3D0A        	sz z
  78  00C0  2800     R  	jmp _L39
  78  00C1  1F00     E  	clr rd
  78  00C2              _L39:
  78  00C2  0700     E  	mov a,ra
  78  00C3  0680     E  	andm a,rd
  78  00C4  0700     E  	mov a,rb
  78  00C5  0680     E  	andm a,rd
  78  00C6  1E00     E  	snz rd
  78  00C7  2800     R  	jmp _L38
  78  00C8  0700     R  	mov a,_main_2[3]
  78  00C9  0A70        	sub a,112
  78  00CA  390A        	snz z
  78  00CB  2800     R  	jmp _L38
  80  00CC              #line 80 "D:\Wade\Project\Tennis_Ball_Machine\Firmware\Ball_Machine_Main_v5\Ball_Machine_Main_v5.c"
  80  00CC  342A        	clr [42].0
  80  00CD  34AA        	clr [42].1
  81  00CE              #line 81 "D:\Wade\Project\Tennis_Ball_Machine\Firmware\Ball_Machine_Main_v5\Ball_Machine_Main_v5.c"
  81  00CE  0F0A        	mov a,10
  81  00CF  0080     R  	mov _delay_2[0],a
  81  00D0  1F00     R  	clr _delay_2[1]
  81  00D1              	fcall _delay
  82  00D8              #line 82 "D:\Wade\Project\Tennis_Ball_Machine\Firmware\Ball_Machine_Main_v5\Ball_Machine_Main_v5.c"
  82  00D8  0FF0        	mov a,240
  82  00D9  06A7        	andm a,[39]
  82  00DA              _L245:
  83  00DA              #line 83 "D:\Wade\Project\Tennis_Ball_Machine\Firmware\Ball_Machine_Main_v5\Ball_Machine_Main_v5.c"
  83  00DA  0F01        	mov a,1
  83  00DB  0080     R  	mov _delay_2[0],a
  83  00DC  1F00     R  	clr _delay_2[1]
  83  00DD              	fcall _delay
  83  00E4  2800     R  	jmp _L36
  83  00E5              _L38:
  85  00E5              #line 85 "D:\Wade\Project\Tennis_Ball_Machine\Firmware\Ball_Machine_Main_v5\Ball_Machine_Main_v5.c"
  85  00E5  0F01        	mov a,1
  85  00E6  0080     E  	mov rd,a
  85  00E7  0700     R  	mov a,_main_2[0]
  85  00E8  0A68        	sub a,104
  85  00E9  3D0A        	sz z
  85  00EA  2800     R  	jmp _L41
  85  00EB  1F00     E  	clr rd
  85  00EC              _L41:
"File: Ball_Machine_Main_v5.c  Assembler  Version HGASM0202      Page 13

  85  00EC  0700     E  	mov a,rd
  85  00ED  0600     E  	and a,ra
  85  00EE  0080     R  	mov _main_2[6],a
  85  00EF  0F01        	mov a,1
  85  00F0  0080     E  	mov rd,a
  85  00F1  0700     R  	mov a,_main_2[3]
  85  00F2  0A74        	sub a,116
  85  00F3  3D0A        	sz z
  85  00F4  2800     R  	jmp _L42
  85  00F5  1F00     E  	clr rd
  85  00F6              _L42:
  85  00F6  0700     E  	mov a,rd
  85  00F7  0600     E  	and a,rb
  85  00F8  0080     E  	mov re,a
  85  00F9  1E00     R  	snz _main_2[6]
  85  00FA  2800     R  	jmp _L43
  85  00FB  1E00     E  	snz re
  85  00FC  2800     R  	jmp _L43
  87  00FD              #line 87 "D:\Wade\Project\Tennis_Ball_Machine\Firmware\Ball_Machine_Main_v5\Ball_Machine_Main_v5.c"
  87  00FD  0FD2        	mov a,210
  87  00FE  80BD 0001   	lmov [317],a
  87  0100  9F3E 0001   	lclr [318]
  88  0102              #line 88 "D:\Wade\Project\Tennis_Ball_Machine\Firmware\Ball_Machine_Main_v5\Ball_Machine_Main_v5.c"
  88  0102  B1B9 0001   	lset [313].3
  88  0104  2800     R  	jmp _L245
  88  0105              _L43:
  91  0105              #line 91 "D:\Wade\Project\Tennis_Ball_Machine\Firmware\Ball_Machine_Main_v5\Ball_Machine_Main_v5.c"
  91  0105  0F01        	mov a,1
  91  0106  0080     E  	mov rb,a
  91  0107  0700     R  	mov a,_main_2[4]
  91  0108  0A74        	sub a,116
  91  0109  3D0A        	sz z
  91  010A  2800     R  	jmp _L44
  91  010B  1F00     E  	clr rb
  91  010C              _L44:
  91  010C  0F01        	mov a,1
  91  010D  0080     E  	mov rf,a
  91  010E  0700     R  	mov a,_main_2[1]
  91  010F  0A53        	sub a,83
  91  0110  3D0A        	sz z
  91  0111  2800     R  	jmp _L46
  91  0112  1F00     E  	clr rf
  91  0113              _L46:
  91  0113  0700     E  	mov a,rc
  91  0114  0680     E  	andm a,rf
  91  0115  0700     E  	mov a,rb
  91  0116  0680     E  	andm a,rf
  91  0117  1E00     E  	snz rf
  91  0118  2800     R  	jmp _L45
  91  0119  1E00     R  	snz _main_2[6]
  91  011A  2800     R  	jmp _L45
  93  011B              #line 93 "D:\Wade\Project\Tennis_Ball_Machine\Firmware\Ball_Machine_Main_v5\Ball_Machine_Main_v5.c"
  93  011B  0FD2        	mov a,210
  93  011C  80BD 0001   	lmov [317],a
  93  011E  9F3E 0001   	lclr [318]
  94  0120              #line 94 "D:\Wade\Project\Tennis_Ball_Machine\Firmware\Ball_Machine_Main_v5\Ball_Machine_Main_v5.c"
  94  0120  B1B9 0001   	lset [313].3
  96  0122              #line 96 "D:\Wade\Project\Tennis_Ball_Machine\Firmware\Ball_Machine_Main_v5\Ball_Machine_Main_v5.c"
  96  0122  0F01        	mov a,1
  96  0123  0080     R  	mov _delay_2[0],a
"File: Ball_Machine_Main_v5.c  Assembler  Version HGASM0202      Page 14

  96  0124  1F00     R  	clr _delay_2[1]
  96  0125              	fcall _delay
  95  012C              #line 95 "D:\Wade\Project\Tennis_Ball_Machine\Firmware\Ball_Machine_Main_v5\Ball_Machine_Main_v5.c"
  95  012C  0F01        	mov a,1
  95  012D  0080     R  	mov _main_2[7],a
  95  012E  2800     R  	jmp _L36
  95  012F              _L45:
  98  012F              #line 98 "D:\Wade\Project\Tennis_Ball_Machine\Firmware\Ball_Machine_Main_v5\Ball_Machine_Main_v5.c"
  98  012F  0700     E  	mov a,ra
  98  0130  0680     E  	andm a,rc
  98  0131  0700     E  	mov a,rb
  98  0132  0680     E  	andm a,rc
  98  0133  0F01        	mov a,1
  98  0134  0080     E  	mov rf,a
  98  0135  0700     R  	mov a,_main_2[0]
  98  0136  0A53        	sub a,83
  98  0137  3D0A        	sz z
  98  0138  2800     R  	jmp _L48
  98  0139  1F00     E  	clr rf
  98  013A              _L48:
  98  013A  0700     E  	mov a,rc
  98  013B  0680     E  	andm a,rf
  98  013C  1E00     E  	snz rf
  98  013D  2800     R  	jmp _L47
  98  013E  0700     R  	mov a,_main_2[1]
  98  013F  0A68        	sub a,104
  98  0140  390A        	snz z
  98  0141  2800     R  	jmp _L47
 100  0142              #line 100 "D:\Wade\Project\Tennis_Ball_Machine\Firmware\Ball_Machine_Main_v5\Ball_Machine_Main_v5.c"
 100  0142  0FBE        	mov a,190
 100  0143  80BD 0001   	lmov [317],a
 100  0145  9F3E 0001   	lclr [318]
 101  0147              #line 101 "D:\Wade\Project\Tennis_Ball_Machine\Firmware\Ball_Machine_Main_v5\Ball_Machine_Main_v5.c"
 101  0147  B5B9 0001   	lclr [313].3
 101  0149  2800     R  	jmp _L245
 101  014A              _L47:
 105  014A              #line 105 "D:\Wade\Project\Tennis_Ball_Machine\Firmware\Ball_Machine_Main_v5\Ball_Machine_Main_v5.c"
 105  014A  0F01        	mov a,1
 105  014B  0080     E  	mov rc,a
 105  014C  0700     R  	mov a,_main_2[2]
 105  014D  0A52        	sub a,82
 105  014E  3D0A        	sz z
 105  014F  2800     R  	jmp _L51
 105  0150  1F00     E  	clr rc
 105  0151              _L51:
 105  0151  0700     E  	mov a,rc
 105  0152  0680     E  	andm a,rb
 105  0153  0F01        	mov a,1
 105  0154  0080     E  	mov rc,a
 105  0155  0700     R  	mov a,_main_2[0]
 105  0156  0A69        	sub a,105
 105  0157  3D0A        	sz z
 105  0158  2800     R  	jmp _L52
 105  0159  1F00     E  	clr rc
 105  015A              _L52:
 105  015A  0700     E  	mov a,rc
 105  015B  0680     E  	andm a,rb
 105  015C  0F01        	mov a,1
 105  015D  0080     E  	mov rc,a
 105  015E  0700     R  	mov a,_main_2[1]
"File: Ball_Machine_Main_v5.c  Assembler  Version HGASM0202      Page 15

 105  015F  0A67        	sub a,103
 105  0160  3D0A        	sz z
 105  0161  2800     R  	jmp _L53
 105  0162  1F00     E  	clr rc
 105  0163              _L53:
 105  0163  0700     E  	mov a,rb
 105  0164  0680     E  	andm a,rc
 105  0165  1E00     E  	snz rc
 105  0166  2800     R  	jmp _L50
 105  0167  0700     R  	mov a,_main_2[3]
 105  0168  0A68        	sub a,104
 105  0169  390A        	snz z
 105  016A  2800     R  	jmp _L50
 107  016B              #line 107 "D:\Wade\Project\Tennis_Ball_Machine\Firmware\Ball_Machine_Main_v5\Ball_Machine_Main_v5.c"
 107  016B  0F30        	mov a,48
 107  016C  0300     R  	add a,_R_Data[7]
 107  016D  0080     E  	mov rf,a
 107  016E  0FEB        	mov a,235
 107  016F  1F00     E  	clr rg
 107  0170  1380     E  	adcm a,rg
 107  0171  1B10        	rrca intc
 107  0172  3410        	clr intc.0
 107  0173  0700     R  	mov a,_main_2[5]
 107  0174  00D9        	mov mduwr0,a
 107  0175  0F64        	mov a,100
 107  0176  00DD        	mov mduwr4,a
 107  0177  1F5A        	clr mduwr1
 107  0178  0F00        	mov a,0
 107  0179  00DE        	mov mduwr5,a
 107  017A  0F06        	mov a,6
 107  017B              _LI2:
 107  017B  1785        	sdz acc
 107  017C  2800     R  	jmp _LI2
 107  017D  0759        	mov a,mduwr0
 107  017E  0080     E  	mov rb,a
 107  017F  075A        	mov a,mduwr1
 107  0180  0080     E  	mov rc,a
 107  0181  3C0A        	sz c
 107  0182  3010        	set intc.0
 107  0183  0700     E  	mov a,rb
 107  0184  0380     E  	addm a,rf
 107  0185  0700     E  	mov a,rc
 107  0186  1380     E  	adcm a,rg
 107  0187  0700     R  	mov a,_R_Data[6]
 107  0188  0080     E  	mov rd,a
 107  0189  1F00     E  	clr re
 107  018A  340A        	clr c
 107  018B  1A00     E  	rlca rd
 107  018C  0080     E  	mov rb,a
 107  018D  1A00     E  	rlca re
 107  018E  0080     E  	mov rc,a
 107  018F  340A        	clr c
 107  0190  1A80     E  	rlc rb
 107  0191  1A80     E  	rlc rc
 107  0192  0700     E  	mov a,rb
 107  0193  0380     E  	addm a,rd
 107  0194  0700     E  	mov a,rc
 107  0195  1380     E  	adcm a,re
 107  0196  340A        	clr c
 107  0197  1A80     E  	rlc rd
"File: Ball_Machine_Main_v5.c  Assembler  Version HGASM0202      Page 16

 107  0198  1A80     E  	rlc re
 107  0199  0700     E  	mov a,rd
 107  019A  0300     E  	add a,rf
 107  019B  0080     E  	mov rb,a
 107  019C  0700     E  	mov a,re
 107  019D  1300     E  	adc a,rg
 107  019E  0080     E  	mov rc,a
 108  019F              #line 108 "D:\Wade\Project\Tennis_Ball_Machine\Firmware\Ball_Machine_Main_v5\Ball_Machine_Main_v5.c"
 108  019F  0700     E  	mov a,rb
 108  01A0  80B6 0001   	lmov [310],a
 108  01A2  0700     E  	mov a,rc
 108  01A3  80B7 0001   	lmov [311],a
 109  01A5              #line 109 "D:\Wade\Project\Tennis_Ball_Machine\Firmware\Ball_Machine_Main_v5\Ball_Machine_Main_v5.c"
 109  01A5  32A7        	set [39].5
 110  01A6              #line 110 "D:\Wade\Project\Tennis_Ball_Machine\Firmware\Ball_Machine_Main_v5\Ball_Machine_Main_v5.c"
 110  01A6  0F52        	mov a,82
 110  01A7  0080     R  	mov _dir[0],a
 110  01A8  2800     R  	jmp _L245
 110  01A9              _L50:
 113  01A9              #line 113 "D:\Wade\Project\Tennis_Ball_Machine\Firmware\Ball_Machine_Main_v5\Ball_Machine_Main_v5.c"
 113  01A9  0F01        	mov a,1
 113  01AA  0080     E  	mov rb,a
 113  01AB  0700     R  	mov a,_main_2[2]
 113  01AC  0A4C        	sub a,76
 113  01AD  3D0A        	sz z
 113  01AE  2800     R  	jmp _L56
 113  01AF  1F00     E  	clr rb
 113  01B0              _L56:
 113  01B0  0700     E  	mov a,rb
 113  01B1  0680     E  	andm a,rd
 113  01B2  0F01        	mov a,1
 113  01B3  0080     E  	mov rb,a
 113  01B4  0700     R  	mov a,_main_2[0]
 113  01B5  0A65        	sub a,101
 113  01B6  3D0A        	sz z
 113  01B7  2800     R  	jmp _L57
 113  01B8  1F00     E  	clr rb
 113  01B9              _L57:
 113  01B9  0700     E  	mov a,rd
 113  01BA  0680     E  	andm a,rb
 113  01BB  1E00     E  	snz rb
 113  01BC  2800     R  	jmp _L55
 113  01BD  0700     R  	mov a,_main_2[1]
 113  01BE  0A66        	sub a,102
 113  01BF  390A        	snz z
 113  01C0  2800     R  	jmp _L55
 115  01C1              #line 115 "D:\Wade\Project\Tennis_Ball_Machine\Firmware\Ball_Machine_Main_v5\Ball_Machine_Main_v5.c"
 115  01C1  0F30        	mov a,48
 115  01C2  0300     R  	add a,_R_Data[6]
 115  01C3  0080     E  	mov rf,a
 115  01C4  0FEB        	mov a,235
 115  01C5  1F00     E  	clr rg
 115  01C6  1380     E  	adcm a,rg
 115  01C7  1B10        	rrca intc
 115  01C8  3410        	clr intc.0
 115  01C9  0700     R  	mov a,_main_2[4]
 115  01CA  00D9        	mov mduwr0,a
 115  01CB  0F64        	mov a,100
 115  01CC  00DD        	mov mduwr4,a
 115  01CD  1F5A        	clr mduwr1
"File: Ball_Machine_Main_v5.c  Assembler  Version HGASM0202      Page 17

 115  01CE  0F00        	mov a,0
 115  01CF  00DE        	mov mduwr5,a
 115  01D0  0F06        	mov a,6
 115  01D1              _LI3:
 115  01D1  1785        	sdz acc
 115  01D2  2800     R  	jmp _LI3
 115  01D3  0759        	mov a,mduwr0
 115  01D4  0080     E  	mov rb,a
 115  01D5  075A        	mov a,mduwr1
 115  01D6  0080     E  	mov rc,a
 115  01D7  3C0A        	sz c
 115  01D8  3010        	set intc.0
 115  01D9  0700     E  	mov a,rb
 115  01DA  0380     E  	addm a,rf
 115  01DB  0700     E  	mov a,rc
 115  01DC  1380     E  	adcm a,rg
 115  01DD  0700     R  	mov a,_main_2[5]
 115  01DE  0080     E  	mov rd,a
 115  01DF  1F00     E  	clr re
 115  01E0  340A        	clr c
 115  01E1  1A00     E  	rlca rd
 115  01E2  0080     E  	mov rb,a
 115  01E3  1A00     E  	rlca re
 115  01E4  0080     E  	mov rc,a
 115  01E5  340A        	clr c
 115  01E6  1A80     E  	rlc rb
 115  01E7  1A80     E  	rlc rc
 115  01E8  0700     E  	mov a,rb
 115  01E9  0380     E  	addm a,rd
 115  01EA  0700     E  	mov a,rc
 115  01EB  1380     E  	adcm a,re
 115  01EC  340A        	clr c
 115  01ED  1A80     E  	rlc rd
 115  01EE  1A80     E  	rlc re
 115  01EF  0700     E  	mov a,rd
 115  01F0  0300     E  	add a,rf
 115  01F1  0080     E  	mov rb,a
 115  01F2  0700     E  	mov a,re
 115  01F3  1300     E  	adc a,rg
 115  01F4  0080     E  	mov rc,a
 116  01F5              #line 116 "D:\Wade\Project\Tennis_Ball_Machine\Firmware\Ball_Machine_Main_v5\Ball_Machine_Main_v5.c"
 116  01F5  0700     E  	mov a,rb
 116  01F6  80B6 0001   	lmov [310],a
 116  01F8  0700     E  	mov a,rc
 116  01F9  80B7 0001   	lmov [311],a
 117  01FB              #line 117 "D:\Wade\Project\Tennis_Ball_Machine\Firmware\Ball_Machine_Main_v5\Ball_Machine_Main_v5.c"
 117  01FB  3227        	set [39].4
 118  01FC              #line 118 "D:\Wade\Project\Tennis_Ball_Machine\Firmware\Ball_Machine_Main_v5\Ball_Machine_Main_v5.c"
 118  01FC  0F4C        	mov a,76
 118  01FD  0080     R  	mov _dir[0],a
 118  01FE  2800     R  	jmp _L245
 118  01FF              _L55:
 121  01FF              #line 121 "D:\Wade\Project\Tennis_Ball_Machine\Firmware\Ball_Machine_Main_v5\Ball_Machine_Main_v5.c"
 121  01FF  0F01        	mov a,1
 121  0200  0080     E  	mov rb,a
 121  0201  0700     R  	mov a,_main_2[0]
 121  0202  0A52        	sub a,82
 121  0203  3D0A        	sz z
 121  0204  2800     R  	jmp _L59
 121  0205  1F00     E  	clr rb
"File: Ball_Machine_Main_v5.c  Assembler  Version HGASM0202      Page 18

 121  0206              _L59:
 121  0206  0700     E  	mov a,rb
 121  0207  0600     E  	and a,ra
 121  0208  0080     R  	mov _main_2[6],a
 121  0209  0F01        	mov a,1
 121  020A  0080     E  	mov rb,a
 121  020B  0700     R  	mov a,_main_2[5]
 121  020C  0A74        	sub a,116
 121  020D  3D0A        	sz z
 121  020E  2800     R  	jmp _L61
 121  020F  1F00     E  	clr rb
 121  0210              _L61:
 121  0210  0F01        	mov a,1
 121  0211  0080     E  	mov ra,a
 121  0212  0700     R  	mov a,_main_2[4]
 121  0213  0A61        	sub a,97
 121  0214  3D0A        	sz z
 121  0215  2800     R  	jmp _L62
 121  0216  1F00     E  	clr ra
 121  0217              _L62:
 121  0217  0700     E  	mov a,ra
 121  0218  0680     E  	andm a,rb
 121  0219  0F01        	mov a,1
 121  021A  0080     E  	mov ra,a
 121  021B  0700     R  	mov a,_R_Data[6]
 121  021C  0A65        	sub a,101
 121  021D  3D0A        	sz z
 121  021E  2800     R  	jmp _L63
 121  021F  1F00     E  	clr ra
 121  0220              _L63:
 121  0220  0700     E  	mov a,rb
 121  0221  0680     E  	andm a,ra
 121  0222  0700     E  	mov a,ra
 121  0223  0680     E  	andm a,re
 121  0224  1E00     E  	snz re
 121  0225  2800     R  	jmp _L60
 121  0226  1E00     R  	snz _main_2[6]
 121  0227  2800     R  	jmp _L60
 123  0228              #line 123 "D:\Wade\Project\Tennis_Ball_Machine\Firmware\Ball_Machine_Main_v5\Ball_Machine_Main_v5.c"
 123  0228  0FCF        	mov a,207
 123  0229  06A7        	andm a,[39]
 123  022A  2800     R  	jmp _L245
 123  022B              _L60:
 128  022B              #line 128 "D:\Wade\Project\Tennis_Ball_Machine\Firmware\Ball_Machine_Main_v5\Ball_Machine_Main_v5.c"
 128  022B  0700     R  	mov a,_main_2[0]
 128  022C  0A70        	sub a,112
 128  022D  390A        	snz z
 128  022E  2800     R  	jmp _L64
 128  022F  0700     R  	mov a,_main_2[2]
 128  0230  0A55        	sub a,85
 128  0231  390A        	snz z
 128  0232  2800     R  	jmp _L64
 130  0233              #line 130 "D:\Wade\Project\Tennis_Ball_Machine\Firmware\Ball_Machine_Main_v5\Ball_Machine_Main_v5.c"
 130  0233  3327        	set [39].6
 130  0234  2800     R  	jmp _L245
 130  0235              _L64:
 133  0235              #line 133 "D:\Wade\Project\Tennis_Ball_Machine\Firmware\Ball_Machine_Main_v5\Ball_Machine_Main_v5.c"
 133  0235  0F01        	mov a,1
 133  0236  0080     E  	mov rb,a
 133  0237  0700     R  	mov a,_main_2[0]
"File: Ball_Machine_Main_v5.c  Assembler  Version HGASM0202      Page 19

 133  0238  0A6F        	sub a,111
 133  0239  3D0A        	sz z
 133  023A  2800     R  	jmp _L68
 133  023B  1F00     E  	clr rb
 133  023C              _L68:
 133  023C  0F01        	mov a,1
 133  023D  0080     E  	mov ra,a
 133  023E  0700     R  	mov a,_main_2[2]
 133  023F  0A44        	sub a,68
 133  0240  3D0A        	sz z
 133  0241  2800     R  	jmp _L69
 133  0242  1F00     E  	clr ra
 133  0243              _L69:
 133  0243  0700     E  	mov a,ra
 133  0244  0680     E  	andm a,rb
 133  0245  0F01        	mov a,1
 133  0246  0080     E  	mov ra,a
 133  0247  0700     R  	mov a,_main_2[1]
 133  0248  0A77        	sub a,119
 133  0249  3D0A        	sz z
 133  024A  2800     R  	jmp _L70
 133  024B  1F00     E  	clr ra
 133  024C              _L70:
 133  024C  0700     E  	mov a,rb
 133  024D  0680     E  	andm a,ra
 133  024E  1E00     E  	snz ra
 133  024F  2800     R  	jmp _L67
 133  0250  0700     R  	mov a,_main_2[3]
 133  0251  0A6E        	sub a,110
 133  0252  390A        	snz z
 133  0253  2800     R  	jmp _L67
 135  0254              #line 135 "D:\Wade\Project\Tennis_Ball_Machine\Firmware\Ball_Machine_Main_v5\Ball_Machine_Main_v5.c"
 135  0254  33A7        	set [39].7
 135  0255  2800     R  	jmp _L245
 135  0256              _L67:
 138  0256              #line 138 "D:\Wade\Project\Tennis_Ball_Machine\Firmware\Ball_Machine_Main_v5\Ball_Machine_Main_v5.c"
 138  0256  0F01        	mov a,1
 138  0257  0080     E  	mov rb,a
 138  0258  0700     R  	mov a,_main_2[3]
 138  0259  0A69        	sub a,105
 138  025A  3D0A        	sz z
 138  025B  2800     R  	jmp _L73
 138  025C  1F00     E  	clr rb
 138  025D              _L73:
 138  025D  0F01        	mov a,1
 138  025E  0080     E  	mov ra,a
 138  025F  0700     R  	mov a,_main_2[1]
 138  0260  0A61        	sub a,97
 138  0261  3D0A        	sz z
 138  0262  2800     R  	jmp _L74
 138  0263  1F00     E  	clr ra
 138  0264              _L74:
 138  0264  0700     E  	mov a,ra
 138  0265  0680     E  	andm a,rb
 138  0266  0F01        	mov a,1
 138  0267  0080     E  	mov ra,a
 138  0268  0700     R  	mov a,_main_2[4]
 138  0269  0A73        	sub a,115
 138  026A  3D0A        	sz z
 138  026B  2800     R  	jmp _L75
"File: Ball_Machine_Main_v5.c  Assembler  Version HGASM0202      Page 20

 138  026C  1F00     E  	clr ra
 138  026D              _L75:
 138  026D  0700     E  	mov a,ra
 138  026E  0680     E  	andm a,rb
 138  026F  0F01        	mov a,1
 138  0270  0080     E  	mov ra,a
 138  0271  0700     R  	mov a,_main_2[5]
 138  0272  0A65        	sub a,101
 138  0273  3D0A        	sz z
 138  0274  2800     R  	jmp _L76
 138  0275  1F00     E  	clr ra
 138  0276              _L76:
 138  0276  0700     E  	mov a,rb
 138  0277  0680     E  	andm a,ra
 138  0278  1E00     E  	snz ra
 138  0279  2800     R  	jmp _L72
 138  027A  1E00     R  	snz _main_2[6]
 138  027B  2800     R  	jmp _L72
 140  027C              #line 140 "D:\Wade\Project\Tennis_Ball_Machine\Firmware\Ball_Machine_Main_v5\Ball_Machine_Main_v5.c"
 140  027C  0F3F        	mov a,63
 140  027D  06A7        	andm a,[39]
 140  027E  2800     R  	jmp _L245
 140  027F              _L72:
 143  027F              #line 143 "D:\Wade\Project\Tennis_Ball_Machine\Firmware\Ball_Machine_Main_v5\Ball_Machine_Main_v5.c"
 143  027F  0F01        	mov a,1
 143  0280  0080     E  	mov rb,a
 143  0281  0700     R  	mov a,_main_2[0]
 143  0282  0A61        	sub a,97
 143  0283  3D0A        	sz z
 143  0284  2800     R  	jmp _L77
 143  0285  1F00     E  	clr rb
 143  0286              _L77:
 143  0286  0F01        	mov a,1
 143  0287  0080     E  	mov ra,a
 143  0288  0700     R  	mov a,_main_2[2]
 143  0289  0A43        	sub a,67
 143  028A  3D0A        	sz z
 143  028B  2800     R  	jmp _L78
 143  028C  1F00     E  	clr ra
 143  028D              _L78:
 143  028D  0700     E  	mov a,rb
 143  028E  0680     E  	andm a,ra
 143  028F  1E00     E  	snz ra
 143  0290  2800     R  	jmp _L36
 143  0291  0700     R  	mov a,_main_2[1]
 143  0292  0A62        	sub a,98
 143  0293  390A        	snz z
 143  0294  2800     R  	jmp _L36
 145  0295              #line 145 "D:\Wade\Project\Tennis_Ball_Machine\Firmware\Ball_Machine_Main_v5\Ball_Machine_Main_v5.c"
 145  0295  0F2C        	mov a,44
 145  0296  80B6 0001   	lmov [310],a
 145  0298  0F01        	mov a,1
 145  0299  80B7 0001   	lmov [311],a
 146  029B              #line 146 "D:\Wade\Project\Tennis_Ball_Machine\Firmware\Ball_Machine_Main_v5\Ball_Machine_Main_v5.c"
 146  029B  32A7        	set [39].5
 147  029C              #line 147 "D:\Wade\Project\Tennis_Ball_Machine\Firmware\Ball_Machine_Main_v5\Ball_Machine_Main_v5.c"
 147  029C  0F53        	mov a,83
 147  029D              	fcall _Sensor_switch
 147  02A4              _L81:
 148  02A4              #line 148 "D:\Wade\Project\Tennis_Ball_Machine\Firmware\Ball_Machine_Main_v5\Ball_Machine_Main_v5.c"
"File: Ball_Machine_Main_v5.c  Assembler  Version HGASM0202      Page 21

 148  02A4  3994        	snz [20].3
 148  02A5  2800     R  	jmp _L81
 149  02A6              #line 149 "D:\Wade\Project\Tennis_Ball_Machine\Firmware\Ball_Machine_Main_v5\Ball_Machine_Main_v5.c"
 149  02A6  0FCF        	mov a,207
 149  02A7  06A7        	andm a,[39]
 150  02A8              #line 150 "D:\Wade\Project\Tennis_Ball_Machine\Firmware\Ball_Machine_Main_v5\Ball_Machine_Main_v5.c"
 150  02A8  0F10        	mov a,16
 150  02A9  0080     R  	mov _delay_2[0],a
 150  02AA  0F27        	mov a,39
 150  02AB  0080     R  	mov _delay_2[1],a
 150  02AC              	fcall _delay
 152  02B3              #line 152 "D:\Wade\Project\Tennis_Ball_Machine\Firmware\Ball_Machine_Main_v5\Ball_Machine_Main_v5.c"
 152  02B3  3227        	set [39].4
 153  02B4              #line 153 "D:\Wade\Project\Tennis_Ball_Machine\Firmware\Ball_Machine_Main_v5\Ball_Machine_Main_v5.c"
 153  02B4  0F10        	mov a,16
 153  02B5  0080     R  	mov _delay_2[0],a
 153  02B6  0F27        	mov a,39
 153  02B7  0080     R  	mov _delay_2[1],a
 153  02B8              	fcall _delay
 154  02BF              #line 154 "D:\Wade\Project\Tennis_Ball_Machine\Firmware\Ball_Machine_Main_v5\Ball_Machine_Main_v5.c"
 154  02BF  0FCF        	mov a,207
 154  02C0  06A7        	andm a,[39]
 155  02C1              #line 155 "D:\Wade\Project\Tennis_Ball_Machine\Firmware\Ball_Machine_Main_v5\Ball_Machine_Main_v5.c"
 155  02C1  0F10        	mov a,16
 155  02C2  0080     R  	mov _delay_2[0],a
 155  02C3  0F27        	mov a,39
 155  02C4  0080     R  	mov _delay_2[1],a
 155  02C5              	fcall _delay
 156  02CC              #line 156 "D:\Wade\Project\Tennis_Ball_Machine\Firmware\Ball_Machine_Main_v5\Ball_Machine_Main_v5.c"
 156  02CC  0F49        	mov a,73
 156  02CD              	fcall _Sensor_switch
 156  02D4              _L36:
 159  02D4              #line 159 "D:\Wade\Project\Tennis_Ball_Machine\Firmware\Ball_Machine_Main_v5\Ball_Machine_Main_v5.c"
 159  02D4  0700     R  	mov a,_main_2[7]
 159  02D5  0080     E  	mov rd,a
 159  02D6  1F00     E  	clr re
 159  02D7  3F85        	sz acc.7
 159  02D8  1F80     E  	set re
 159  02D9  1114        	swapa [20]
 159  02DA  0E0F        	and a,0fh
 159  02DB  0080     E  	mov rb,a
 159  02DC  0F01        	mov a,1
 159  02DD  0480     E  	xorm a,rb
 159  02DE  1F00     E  	clr rc
 159  02DF  0700     E  	mov a,rd  
 159  02E0  0680     E  	andm a,rb  
 159  02E1  0700     E  	mov a,re  
 159  02E2  0680     E  	andm a,rc
 159  02E3  0700     E  	mov a,rb
 159  02E4  0500     E  	or a,rc
 159  02E5  3D0A        	sz z
 159  02E6  2800     R  	jmp _L83
 162  02E7              #line 162 "D:\Wade\Project\Tennis_Ball_Machine\Firmware\Ball_Machine_Main_v5\Ball_Machine_Main_v5.c"
 162  02E7  B5B9 0001   	lclr [313].3
 163  02E9              #line 163 "D:\Wade\Project\Tennis_Ball_Machine\Firmware\Ball_Machine_Main_v5\Ball_Machine_Main_v5.c"
 163  02E9  0FB9        	mov a,185
 163  02EA  80BD 0001   	lmov [317],a
 163  02EC  2800     R  	jmp _L244
 163  02ED  2800     R  	jmp $
 163  02EE              _main endp
"File: Ball_Machine_Main_v5.c  Assembler  Version HGASM0202      Page 22

 163  02EE              
 163  02EE              @dummy endp
 163  02EE              
 163  02EE              #line 163 "D:\Wade\Project\Tennis_Ball_Machine\Firmware\Ball_Machine_Main_v5\Ball_Machine_Main_v5.c"
 163  02EE              #pragma debug scope 1 1
 163  02EE              public _mode
 163  0000              @HCCINIT	.section 'data'
  33  0000              #line 33 "D:\Wade\Project\Tennis_Ball_Machine\Firmware\Ball_Machine_Main_v5\Ball_Machine_Main_v5.c"
  33  0000              @HCCINIT_mode .section 'data'
  33  0000              _mode label byte
  33  0000              #pragma debug variable 7 1 _mode "mode"
  33  0000              	db 67
  33  0000              @ROMDATA_BASE .section inpage 'code'
  33  0000              	db 67
  33  0001              @HCCINIT_mode .section 'data'
  33  0001              public _dir
  32  0001              #line 32 "D:\Wade\Project\Tennis_Ball_Machine\Firmware\Ball_Machine_Main_v5\Ball_Machine_Main_v5.c"
  32  0000              @HCCINIT_dir .section 'data'
  32  0000              _dir label byte
  32  0000              #pragma debug variable 7 1 _dir "dir"
  32  0000              	db 82
  32  0001              @ROMDATA_BASE .section inpage 'code'
  32  0001              	db 82
  32  0001              @HCCINIT_dir .section 'data'
  32  0001              public _kn
   7  0001              #line 7 "D:\Wade\Project\Tennis_Ball_Machine\Firmware\Ball_Machine_Main_v5\Ball_Machine_Main_v5.c"
   7  0000              @HCCINIT_kn .section 'data'
   7  0000              _kn label byte
   7  0000              #pragma debug variable 10 1 _kn "kn"
   7  0000              	db 0
   7  0001              @ROMDATA_BASE .section inpage 'code'
   7  0001              	db 0
   7  0001              @HCCINIT_kn .section 'data'
   7  0001              	db 0
   7  0002              @ROMDATA_BASE .section inpage 'code'
   7  0002              	db 0
   7  0002              @HCCINIT_kn .section 'data'
   6  0002              #line 6 "D:\Wade\Project\Tennis_Ball_Machine\Firmware\Ball_Machine_Main_v5\Ball_Machine_Main_v5.c"
   6  0002              public _Data
   6  0000              @HCCINIT0_Data .section 'data'
   6  0000  000A[       _Data	db 10 dup(0)
            00
            ]
   6  000A              #pragma debug array 42 8 10 1
   6  000A              #pragma debug array 42 8 10 1
   6  000A              #pragma debug variable 42 1 _Data "Data"
   6  000A              
   6  0000              @HCCINIT .section 'data'
   5  0000              #line 5 "D:\Wade\Project\Tennis_Ball_Machine\Firmware\Ball_Machine_Main_v5\Ball_Machine_Main_v5.c"
   5  0000              public _R_Data
   5  0000              @HCCINIT0_R_Data .section 'data'
   5  0000  000A[       _R_Data	db 10 dup(0)
            00
            ]
   5  000A              #pragma debug variable 42 1 _R_Data "R_Data"
   5  000A              
   5  0000              @HCCINIT .section 'data'
   5  0000              #pragma debug struct_end
   5  0000              #pragma debug struct_end
   5  0000              #pragma debug union_end
"File: Ball_Machine_Main_v5.c  Assembler  Version HGASM0202      Page 23

   5  0000              #pragma debug union_end
   5  0000              #pragma debug variable 44 1 ___intc0 "__intc0" 1
   5  0000              #pragma debug struct_end
   5  0000              #pragma debug struct_end
   5  0000              #pragma debug union_end
   5  0000              #pragma debug union_end
   5  0000              #pragma debug variable 46 1 ___intc3 "__intc3" 1
   5  0000              #pragma debug struct_end
   5  0000              #pragma debug struct_end
   5  0000              #pragma debug union_end
   5  0000              #pragma debug union_end
   5  0000              #pragma debug variable 48 1 ___pa "__pa" 1
   5  0000              #pragma debug struct_end
   5  0000              #pragma debug struct_end
   5  0000              #pragma debug union_end
   5  0000              #pragma debug union_end
   5  0000              #pragma debug variable 50 1 ___pac "__pac" 1
   5  0000              #pragma debug struct_end
   5  0000              #pragma debug struct_end
   5  0000              #pragma debug union_end
   5  0000              #pragma debug union_end
   5  0000              #pragma debug variable 52 1 ___papu "__papu" 1
   5  0000              #pragma debug struct_end
   5  0000              #pragma debug struct_end
   5  0000              #pragma debug union_end
   5  0000              #pragma debug union_end
   5  0000              #pragma debug variable 54 1 ___pg "__pg" 1
   5  0000              #pragma debug struct_end
   5  0000              #pragma debug struct_end
   5  0000              #pragma debug union_end
   5  0000              #pragma debug union_end
   5  0000              #pragma debug variable 56 1 ___pgc "__pgc" 1
   5  0000              #pragma debug struct_end
   5  0000              #pragma debug struct_end
   5  0000              #pragma debug union_end
   5  0000              #pragma debug union_end
   5  0000              #pragma debug variable 58 1 ___ph "__ph" 1
   5  0000              #pragma debug struct_end
   5  0000              #pragma debug struct_end
   5  0000              #pragma debug union_end
   5  0000              #pragma debug union_end
   5  0000              #pragma debug variable 60 1 ___phc "__phc" 1
   5  0000              #pragma debug struct_end
   5  0000              #pragma debug struct_end
   5  0000              #pragma debug union_end
   5  0000              #pragma debug union_end
   5  0000              #pragma debug variable 62 1 ___mfi5 "__mfi5" 1
   5  0000              #pragma debug struct_end
   5  0000              #pragma debug struct_end
   5  0000              #pragma debug union_end
   5  0000              #pragma debug union_end
   5  0000              #pragma debug variable 64 1 ___integ "__integ" 1
   5  0000              #pragma debug struct_end
   5  0000              #pragma debug struct_end
   5  0000              #pragma debug union_end
   5  0000              #pragma debug union_end
   5  0000              #pragma debug variable 66 1 ___scc "__scc" 1
   5  0000              #pragma debug struct_end
   5  0000              #pragma debug struct_end
   5  0000              #pragma debug union_end
"File: Ball_Machine_Main_v5.c  Assembler  Version HGASM0202      Page 24

   5  0000              #pragma debug union_end
   5  0000              #pragma debug variable 68 1 ___hircc "__hircc" 1
   5  0000              #pragma debug struct_end
   5  0000              #pragma debug struct_end
   5  0000              #pragma debug union_end
   5  0000              #pragma debug union_end
   5  0000              #pragma debug variable 70 1 ___wdtc "__wdtc" 1
   5  0000              #pragma debug struct_end
   5  0000              #pragma debug struct_end
   5  0000              #pragma debug union_end
   5  0000              #pragma debug union_end
   5  0000              #pragma debug variable 72 1 ___stm0c0 "__stm0c0" 1
   5  0000              #pragma debug struct_end
   5  0000              #pragma debug struct_end
   5  0000              #pragma debug union_end
   5  0000              #pragma debug union_end
   5  0000              #pragma debug variable 74 1 ___stm0c1 "__stm0c1" 1
   5  0000              #pragma debug variable 8 1 ___stm0al "__stm0al" 1
   5  0000              #pragma debug variable 8 1 ___stm0ah "__stm0ah" 1
   5  0000              #pragma debug struct_end
   5  0000              #pragma debug struct_end
   5  0000              #pragma debug union_end
   5  0000              #pragma debug union_end
   5  0000              #pragma debug variable 76 1 ___stm0rp "__stm0rp" 1
   5  0000              #pragma debug struct_end
   5  0000              #pragma debug struct_end
   5  0000              #pragma debug union_end
   5  0000              #pragma debug union_end
   5  0000              #pragma debug variable 78 1 ___u0sr "__u0sr" 1
   5  0000              #pragma debug struct_end
   5  0000              #pragma debug struct_end
   5  0000              #pragma debug union_end
   5  0000              #pragma debug union_end
   5  0000              #pragma debug variable 80 1 ___u0cr1 "__u0cr1" 1
   5  0000              #pragma debug struct_end
   5  0000              #pragma debug struct_end
   5  0000              #pragma debug union_end
   5  0000              #pragma debug union_end
   5  0000              #pragma debug variable 82 1 ___u0cr2 "__u0cr2" 1
   5  0000              #pragma debug variable 8 1 ___txr_rxr0 "__txr_rxr0" 1
   5  0000              #pragma debug variable 8 1 ___brg0 "__brg0" 1
   5  0000              #pragma debug struct_end
   5  0000              #pragma debug struct_end
   5  0000              #pragma debug union_end
   5  0000              #pragma debug union_end
   5  0000              #pragma debug variable 84 1 ___stm1c0 "__stm1c0" 1
   5  0000              #pragma debug struct_end
   5  0000              #pragma debug struct_end
   5  0000              #pragma debug union_end
   5  0000              #pragma debug union_end
   5  0000              #pragma debug variable 86 1 ___stm1c1 "__stm1c1" 1
   5  0000              #pragma debug variable 8 1 ___stm1al "__stm1al" 1
   5  0000              #pragma debug variable 8 1 ___stm1ah "__stm1ah" 1
   5  0000              #pragma debug struct_end
   5  0000              #pragma debug struct_end
   5  0000              #pragma debug union_end
   5  0000              #pragma debug union_end
   5  0000              #pragma debug variable 88 1 ___stm1rp "__stm1rp" 1
   5  0000              #pragma debug struct_end
   5  0000              #pragma debug struct_end
"File: Ball_Machine_Main_v5.c  Assembler  Version HGASM0202      Page 25

   5  0000              #pragma debug union_end
   5  0000              #pragma debug union_end
   5  0000              #pragma debug variable 90 1 ___stm2c0 "__stm2c0" 1
   5  0000              #pragma debug struct_end
   5  0000              #pragma debug struct_end
   5  0000              #pragma debug union_end
   5  0000              #pragma debug union_end
   5  0000              #pragma debug variable 92 1 ___stm2c1 "__stm2c1" 1
   5  0000              #pragma debug variable 8 1 ___stm2al "__stm2al" 1
   5  0000              #pragma debug variable 8 1 ___stm2ah "__stm2ah" 1
   5  0000              #pragma debug struct_end
   5  0000              #pragma debug struct_end
   5  0000              #pragma debug union_end
   5  0000              #pragma debug union_end
   5  0000              #pragma debug variable 94 1 ___stm2rp "__stm2rp" 1
   5  0000              #pragma debug struct_end
   5  0000              #pragma debug struct_end
   5  0000              #pragma debug union_end
   5  0000              #pragma debug union_end
   5  0000              #pragma debug variable 96 1 ___pas1 "__pas1" 1
   5  0000              #pragma debug struct_end
   5  0000              #pragma debug struct_end
   5  0000              #pragma debug union_end
   5  0000              #pragma debug union_end
   5  0000              #pragma debug variable 98 1 ___pcs1 "__pcs1" 1
   5  0000              #pragma debug struct_end
   5  0000              #pragma debug struct_end
   5  0000              #pragma debug union_end
   5  0000              #pragma debug union_end
   5  0000              #pragma debug variable 100 1 ___pds0 "__pds0" 1
   5  0000              #pragma debug struct_end
   5  0000              #pragma debug struct_end
   5  0000              #pragma debug union_end
   5  0000              #pragma debug union_end
   5  0000              #pragma debug variable 102 1 ___pfs1 "__pfs1" 1
   5  0000              extern r1:byte
   5  0000              extern r2:byte
   5  0000              extern r3:byte
   5  0000              extern r4:byte
   5  0000              extern r5:byte
   5  0000              extern r6:byte
   5  0000              extern r7:byte
  36  0000              #line 36 "D:\Wade\Project\Tennis_Ball_Machine\Firmware\Ball_Machine_Main_v5\Ball_Machine_Main_v5.c"
  36  0000              @code .section at 0 'code'
  36  0000  1F0B        	clr bp
  36  0001  2800     R  	jmp _main_startup1
  36  0002              
  36  0002              
  36  0002              ; 
  36  0002              ; Generated by holtek-gcc v3.19, Thu Oct 27 08:34:51 2022
  36  0002              ; Rebuild 718
  36  0002              ; end of file


        0 Errors, 0