"File: Interrupt.c   Assembler  Version HGASM0202      Page 1


   1  0000              ; Generated by holtek-gcc v3.19, Wed Jul 27 16:09:11 2022
   2  0000              ; 
   3  0000              ; Configuration:
   4  0000              ;       with long instruction
   5  0000              ;       Multi-ROM, Multi-RAM
   6  0000              ;       bits_per_rom_unit:16
   7  0000              ;       with mp1
   8  0000              ;       with tbhp, address(0x9)
   9  0000              ;          Use tabrd-const
  10  0000              ;       
  11  0000              ; SFR address of long-instruction arch:
  12  0000              ;    mp0 = -1,1,0
  13  0000              ;    mp1 = 4,3,2
  14  0000              ;    mp2 = 14,13,12
  15  0000              ;    tbp = 9,7,8
  16  0000              ;    acc = 5
  17  0000              ;    pcl = 6
  18  0000              ;    status = 10
  19  0000              ;    bp = 11
  20  0000              ;    intc = 16
  21  0000              ;       
  22  0000              ;       
  23  0000              ; use 'tabrdc' instead of 'tabrd'
  24  0000              ;       
  25  0000              
  26  0000              #pragma translator "holtek-gcc 4.6.4" "3.19" "build 20130711"
  27  0000              ; Rebuild 718
  28  0000              
  29  0000              ir equ [2]
  30  0000              mp equ [3]
  31  0000              sbp equ [4]
  32  0000              acc equ [5]
  33  0000              bp equ [11]
  34  0000              tblp equ [7]
  35  0000              tbhp equ [9]
  36  0000              status equ [10]
  37  0000              c equ [10].0
  38  0000              ac equ [10].1
  39  0000              z equ [10].2
  40  0000              ov equ [10].3
  41  0000              cz equ [10].6
  42  0000              sc equ [10].7
  43  0000              intc equ [16]
  44  0000              mduwr0 equ [59h]
  45  0000              mduwr1 equ [5ah]
  46  0000              mduwr2 equ [5bh]
  47  0000              mduwr3 equ [5ch]
  48  0000              mduwr4 equ [5dh]
  49  0000              mduwr5 equ [5eh]
  50  0000              mduwrctrl equ [5fh]
  51  0000              
  52  0000              extern ra:byte
  53  0000              extern rb:byte
  54  0000              extern rc:byte
  55  0000              extern rd:byte
  56  0000              extern re:byte
  57  0000              extern rf:byte
  58  0000              extern rg:byte
  59  0000              extern rh:byte
"File: Interrupt.ASM  Assembler  Version HGASM0202      Page 2

  60  0000              extern _Crom2Prom:near
  61  0000              extern _Crom2PromNext:near
  62  0000              
  63  0000              RAMBANK 0 @BITDATASEC, @BITDATASEC1
  64  0000              @HCCINIT	.section 'data'
  65  0000              @HCCINIT0	.section 'data'
  66  0000              @BITDATASEC	 .section 'data'
  67  0000              @BITDATASEC1	 .section 'data'
  68  0000              
  69  0000              #pragma debug scope 1 1
  70  0000              	extern __DELAY3:near
  71  0000              	extern __DELAYX3:near
  72  0000              	extern __DELAYX6:near
  73  0000              	extern __DELAYY5:near
  74  0000              	extern __DELAYY3:near
  75  0000              	extern _builtin_holtek_delay_2:byte
  76  0000              ___stm0c0 equ [78]
  77  0000              ___stm0c1 equ [79]
  78  0000              ___stm0rp equ [84]
  79  0000              ___stm0al equ [82]
  80  0000              ___stm0ah equ [83]
  81  0000              ___pcs1 equ [338]
  82  0000              ___stm2c0 equ [313]
  83  0000              ___stm2c1 equ [314]
  84  0000              ___stm2rp equ [319]
  85  0000              ___stm2al equ [317]
  86  0000              ___stm2ah equ [318]
  87  0000              ___pfs1 equ [344]
  88  0000              public _stm_setup
  89  0000              #pragma debug scope 2 1

  79  0000              #line 79 "D:\Wade\Project\Tennis_Ball_Machine\Firmware\Interrupt\Interrupt.c"
  79  0000              _stm_setup .section 'code'
  79  0000              _stm_setup proc
  81  0000              #line 81 "D:\Wade\Project\Tennis_Ball_Machine\Firmware\Interrupt\Interrupt.c"
  81  0000  0F20        	mov a,32
  81  0001  00CE        	mov [78],a
  82  0002              #line 82 "D:\Wade\Project\Tennis_Ball_Machine\Firmware\Interrupt\Interrupt.c"
  82  0002  0FA8        	mov a,168
  82  0003  00CF        	mov [79],a
  83  0004              #line 83 "D:\Wade\Project\Tennis_Ball_Machine\Firmware\Interrupt\Interrupt.c"
  83  0004  0F02        	mov a,2
  83  0005  00D4        	mov [84],a
  84  0006              #line 84 "D:\Wade\Project\Tennis_Ball_Machine\Firmware\Interrupt\Interrupt.c"
  84  0006  1F52        	clr [82]
  84  0007  1F53        	clr [83]
  86  0008              #line 86 "D:\Wade\Project\Tennis_Ball_Machine\Firmware\Interrupt\Interrupt.c"
  86  0008  0F20        	mov a,32
  86  0009  80D2 0001   	lmov [338],a
  89  000B              #line 89 "D:\Wade\Project\Tennis_Ball_Machine\Firmware\Interrupt\Interrupt.c"
  89  000B  0F20        	mov a,32
  89  000C  80B9 0001   	lmov [313],a
  90  000E              #line 90 "D:\Wade\Project\Tennis_Ball_Machine\Firmware\Interrupt\Interrupt.c"
  90  000E  0FA8        	mov a,168
  90  000F  80BA 0001   	lmov [314],a
  91  0011              #line 91 "D:\Wade\Project\Tennis_Ball_Machine\Firmware\Interrupt\Interrupt.c"
  91  0011  0F02        	mov a,2
  91  0012  80BF 0001   	lmov [319],a
  92  0014              #line 92 "D:\Wade\Project\Tennis_Ball_Machine\Firmware\Interrupt\Interrupt.c"
  92  0014  9F3D 0001   	lclr [317]
"File: Interrupt.c   Assembler  Version HGASM0202      Page 3

  92  0016  9F3E 0001   	lclr [318]
  94  0018              #line 94 "D:\Wade\Project\Tennis_Ball_Machine\Firmware\Interrupt\Interrupt.c"
  94  0018  0F80        	mov a,128
  94  0019  80D8 0001   	lmov [344],a
  94  001B  0003        	ret
  94  001C              _stm_setup endp
  94  001C              #line 94 "D:\Wade\Project\Tennis_Ball_Machine\Firmware\Interrupt\Interrupt.c"
  94  001C              #pragma debug scope 1 1
  94  001C              ___pas1 equ [334]
  94  001C              ___u0cr1 equ [273]
  94  001C              ___u0cr2 equ [274]
  94  001C              ___brg0 equ [276]
  94  001C              ___mfi5 equ [56]
  94  001C              ___intc3 equ [19]
  94  001C              ___intc0 equ [16]
  94  001C              public _UART_Setup
  94  001C              #pragma debug scope 3 1
 113  001C              #line 113 "D:\Wade\Project\Tennis_Ball_Machine\Firmware\Interrupt\Interrupt.c"
 113  0000              _UART_Setup .section 'code'
 113  0000              _UART_Setup proc
 114  0000              #line 114 "D:\Wade\Project\Tennis_Ball_Machine\Firmware\Interrupt\Interrupt.c"
 114  0000  0FF0        	mov a,240
 114  0001  80CE 0001   	lmov [334],a
 115  0003              #line 115 "D:\Wade\Project\Tennis_Ball_Machine\Firmware\Interrupt\Interrupt.c"
 115  0003  0F80        	mov a,128
 115  0004  8091 0001   	lmov [273],a
 116  0006              #line 116 "D:\Wade\Project\Tennis_Ball_Machine\Firmware\Interrupt\Interrupt.c"
 116  0006  0FC4        	mov a,196
 116  0007  8092 0001   	lmov [274],a
 117  0009              #line 117 "D:\Wade\Project\Tennis_Ball_Machine\Firmware\Interrupt\Interrupt.c"
 117  0009  0F0C        	mov a,12
 117  000A  8094 0001   	lmov [276],a
 118  000C              #line 118 "D:\Wade\Project\Tennis_Ball_Machine\Firmware\Interrupt\Interrupt.c"
 118  000C  3038        	set [56].0
 119  000D              #line 119 "D:\Wade\Project\Tennis_Ball_Machine\Firmware\Interrupt\Interrupt.c"
 119  000D  3638        	clr [56].4
 120  000E              #line 120 "D:\Wade\Project\Tennis_Ball_Machine\Firmware\Interrupt\Interrupt.c"
 120  000E  3193        	set [19].3
 121  000F              #line 121 "D:\Wade\Project\Tennis_Ball_Machine\Firmware\Interrupt\Interrupt.c"
 121  000F  3010        	set [16].0
 121  0010  0003        	ret
 121  0011              _UART_Setup endp
 121  0011              #line 121 "D:\Wade\Project\Tennis_Ball_Machine\Firmware\Interrupt\Interrupt.c"
 121  0011              #pragma debug scope 1 1
 121  0011              ___u0sr equ [272]
 121  0011              ___txr_rxr0 equ [275]
 121  0011              public _Read_Data
 121  0011              #pragma debug scope 4 1
 125  0011              #line 125 "D:\Wade\Project\Tennis_Ball_Machine\Firmware\Interrupt\Interrupt.c"
 125  0000              _Read_Data .section 'code'
 125  0000              _Read_Data proc
 125  0000              _L5:
 126  0000              #line 126 "D:\Wade\Project\Tennis_Ball_Machine\Firmware\Interrupt\Interrupt.c"
 126  0000  B990 0001   	lsnz [272].3
 126  0002  2800     R  	jmp _L5
 127  0003              #line 127 "D:\Wade\Project\Tennis_Ball_Machine\Firmware\Interrupt\Interrupt.c"
 127  0003  0700     R  	mov a,_kn[0]
 127  0004  0080     E  	mov rb,a
 127  0005  0700     R  	mov a,_kn[1]
 127  0006  0080     E  	mov rc,a
"File: Interrupt.c   Assembler  Version HGASM0202      Page 4

 127  0007  8713 0001   	lmov a,[275]
 127  0009  0080     E  	mov ra,a
 127  000A  0F00     R  	mov a,low offset _R_Data
 127  000B  0300     E  	add a,rb
 127  000C  0083        	mov mp,a
 127  000D  0F00     R  	mov a,high offset _R_Data
 127  000E  1300     E  	adc a,rc
 127  000F  0084        	mov sbp,a
 127  0010  0700     E  	mov a,ra
 127  0011  0082        	mov ir,a
 128  0012              #line 128 "D:\Wade\Project\Tennis_Ball_Machine\Firmware\Interrupt\Interrupt.c"
 128  0012  0700     E  	mov a,ra
 128  0013  0A2F        	sub a,47
 128  0014  3D0A        	sz z
 128  0015  2800     R  	jmp _L6
 128  0016  0F09        	mov a,9
 128  0017  0200     E  	sub a,rb
 128  0018  0F00        	mov a,0
 128  0019  1200     E  	sbc a,rc
 128  001A  3C0A        	sz c
 128  001B  2800     R  	jmp _L7
 128  001C              _L6:
 128  001C  1F00     R  	clr _kn[0]
 128  001D  1F00     R  	clr _kn[1]
 128  001E  2800     R  	jmp _L3
 128  001F              _L7:
 129  001F              #line 129 "D:\Wade\Project\Tennis_Ball_Machine\Firmware\Interrupt\Interrupt.c"
 129  001F  0F01        	mov a,1
 129  0020  0300     E  	add a,rb
 129  0021  0080     R  	mov _kn[0],a
 129  0022  0F00        	mov a,0
 129  0023  1300     E  	adc a,rc
 129  0024  0080     R  	mov _kn[1],a
 129  0025              _L3:
 129  0025  0003        	ret
 129  0026              _Read_Data endp
 129  0026              #line 129 "D:\Wade\Project\Tennis_Ball_Machine\Firmware\Interrupt\Interrupt.c"
 129  0026              #pragma debug scope 1 1
 129  0026              public _Uart_R
 129  0026              #pragma debug scope 5 1
  98  0026              #line 98 "D:\Wade\Project\Tennis_Ball_Machine\Firmware\Interrupt\Interrupt.c"
  98  0026              rombank 0 @Uart_R_code
  98  0000              @Uart_R_code .section at 60 'code'
  98  0000  0080     E  	mov r1,a
  98  0001  070B        	mov a,bp
  98  0002  1F0B        	clr bp
  98  0003  2800     R  	jmp _Uart_R
  98  0004              ROMBANK 0 _Uart_R
  98  0004              #pragma debug scope 1 1
  98  0004              @dummy60 endp
  98  0004              #pragma debug scope 6 1
  98  0000              _Uart_R .section 'code'
  98  0000              _Uart_R proc
  98  0000  0080     E  	mov r2,a
  98  0001  070A        	mov a, status
  98  0002  0080     E  	mov r3,a
  98  0003  0703        	mov a,mp
  98  0004  0080     E  	mov r4,a
  98  0005  0704        	mov a,sbp
  98  0006  0080     E  	mov r5,a
"File: Interrupt.c   Assembler  Version HGASM0202      Page 5

  98  0007  0707        	mov a,tblp
  98  0008  0080     E  	mov r6,a
  98  0009  0709        	mov a,tbhp
  98  000A  0080     E  	mov r7,a
  99  000B              #line 99 "D:\Wade\Project\Tennis_Ball_Machine\Firmware\Interrupt\Interrupt.c"
  99  000B              	fcall _Read_Data
 100  0012              #line 100 "D:\Wade\Project\Tennis_Ball_Machine\Firmware\Interrupt\Interrupt.c"
 100  0012  3638        	clr [56].4
 100  0013  0700     E  	mov a,r2
 100  0014  008B        	mov bp,a
 100  0015  0700     E  	mov a,r3
 100  0016  008A        	mov status,a
 100  0017  0700     E  	mov a,r4
 100  0018  0083        	mov mp,a
 100  0019  0700     E  	mov a,r5
 100  001A  0084        	mov sbp,a
 100  001B  0700     E  	mov a,r6
 100  001C  0087        	mov tblp,a
 100  001D  0700     E  	mov a,r7
 100  001E  0089        	mov tbhp,a
 100  001F  1D05        	tabrdc acc
 100  0020  0700     E  	mov a,r1
 100  0021  0004        	reti
 100  0022              _Uart_R endp
 100  0022              
 100  0022              #line 100 "D:\Wade\Project\Tennis_Ball_Machine\Firmware\Interrupt\Interrupt.c"
 100  0022              #pragma debug scope 1 1
 100  0022              public _Send_Data
 100  0022              #pragma debug scope 7 1
 133  0022              #line 133 "D:\Wade\Project\Tennis_Ball_Machine\Firmware\Interrupt\Interrupt.c"
 133  0000              _Send_Data .section 'code'
 133  0000              _Send_Data proc
 133  0000  00              local _Send_Data_2 db 1 dup(?)	; 0,1
 133  0000  0080     R  	mov _Send_Data_2[0],a
 133  0001              #pragma debug variable 7 7 _Send_Data_2+0 "data"
 133  0001              _L16:
 134  0001              #line 134 "D:\Wade\Project\Tennis_Ball_Machine\Firmware\Interrupt\Interrupt.c"
 134  0001  B810 0001   	lsnz [272].0
 134  0003  2800     R  	jmp _L16
 135  0004              #line 135 "D:\Wade\Project\Tennis_Ball_Machine\Firmware\Interrupt\Interrupt.c"
 135  0004  0700     R  	mov a,_Send_Data_2[0]
 135  0005  8093 0001   	lmov [275],a
 135  0007              _L18:
 136  0007              #line 136 "D:\Wade\Project\Tennis_Ball_Machine\Firmware\Interrupt\Interrupt.c"
 136  0007  B890 0001   	lsnz [272].1
 136  0009  2800     R  	jmp _L18
 136  000A  0003        	ret
 136  000B              _Send_Data endp
 136  000B              #line 136 "D:\Wade\Project\Tennis_Ball_Machine\Firmware\Interrupt\Interrupt.c"
 136  000B              #pragma debug scope 1 1
 136  000B              public _Sen
 136  000B              #pragma debug scope 8 1
 104  000B              #line 104 "D:\Wade\Project\Tennis_Ball_Machine\Firmware\Interrupt\Interrupt.c"
 104  000B              rombank 0 @Sen_code
 104  0000              @Sen_code .section at 4 'code'
 104  0000  0080     E  	mov r1,a
 104  0001  070B        	mov a,bp
 104  0002  1F0B        	clr bp
 104  0003  2800     R  	jmp _Sen
 104  0004              ROMBANK 0 _Sen
"File: Interrupt.c   Assembler  Version HGASM0202      Page 6

 104  0004              #pragma debug scope 1 1
 104  0004              @dummy4 endp
 104  0004              #pragma debug scope 9 1
 104  0000              _Sen .section 'code'
 104  0000              _Sen proc
 104  0000  0080     E  	mov r2,a
 104  0001  070A        	mov a, status
 104  0002  0080     E  	mov r3,a
 104  0003  0703        	mov a,mp
 104  0004  0080     E  	mov r4,a
 104  0005  0704        	mov a,sbp
 104  0006  0080     E  	mov r5,a
 104  0007  0707        	mov a,tblp
 104  0008  0080     E  	mov r6,a
 104  0009  0709        	mov a,tbhp
 104  000A  0080     E  	mov r7,a
 105  000B              #line 105 "D:\Wade\Project\Tennis_Ball_Machine\Firmware\Interrupt\Interrupt.c"
 105  000B  0700     R  	mov a,_dir[0]
 105  000C              	fcall _Send_Data
 106  0013              #line 106 "D:\Wade\Project\Tennis_Ball_Machine\Firmware\Interrupt\Interrupt.c"
 106  0013  0700     R  	mov a,_dir[0]
 106  0014  0A52        	sub a,82
 106  0015  390A        	snz z
 106  0016  2800     R  	jmp _L20
 107  0017              #line 107 "D:\Wade\Project\Tennis_Ball_Machine\Firmware\Interrupt\Interrupt.c"
 107  0017  0F4C        	mov a,76
 107  0018  0080     R  	mov _dir[0],a
 107  0019  2800     R  	jmp _L19
 107  001A              _L20:
 109  001A              #line 109 "D:\Wade\Project\Tennis_Ball_Machine\Firmware\Interrupt\Interrupt.c"
 109  001A  0F52        	mov a,82
 109  001B  0080     R  	mov _dir[0],a
 109  001C              _L19:
 109  001C  0700     E  	mov a,r2
 109  001D  008B        	mov bp,a
 109  001E  0700     E  	mov a,r3
 109  001F  008A        	mov status,a
 109  0020  0700     E  	mov a,r4
 109  0021  0083        	mov mp,a
 109  0022  0700     E  	mov a,r5
 109  0023  0084        	mov sbp,a
 109  0024  0700     E  	mov a,r6
 109  0025  0087        	mov tblp,a
 109  0026  0700     E  	mov a,r7
 109  0027  0089        	mov tbhp,a
 109  0028  1D05        	tabrdc acc
 109  0029  0700     E  	mov a,r1
 109  002A  0004        	reti
 109  002B              _Sen endp
 109  002B              
 109  002B              #line 109 "D:\Wade\Project\Tennis_Ball_Machine\Firmware\Interrupt\Interrupt.c"
 109  002B              #pragma debug scope 1 1
 109  002B              public _delay
 109  002B              #pragma debug scope 10 1
 140  002B              #line 140 "D:\Wade\Project\Tennis_Ball_Machine\Firmware\Interrupt\Interrupt.c"
 140  0000              _delay .section 'code'
 140  0000              _delay proc
 140  0000              public _delay_2
 140  0000  0002[           local _delay_2 db 2 dup(?)	; 2,0
            00
"File: Interrupt.c   Assembler  Version HGASM0202      Page 7

            ]
 140  0002              #pragma debug variable 10 10 _delay_2+0 "dev"
 142  0002              #line 142 "D:\Wade\Project\Tennis_Ball_Machine\Firmware\Interrupt\Interrupt.c"
 142  0000  1F00     E  	clr rb
 142  0001  1F00     E  	clr rc
 142  0002              _L23:
 142  0002              #line 142 "D:\Wade\Project\Tennis_Ball_Machine\Firmware\Interrupt\Interrupt.c"
 142  0002  0700     E  	mov a,rb
 142  0003  0200     R  	sub a,_delay_2[0]
 142  0004  0700     E  	mov a,rc
 142  0005  1200     R  	sbc a,_delay_2[1]
 142  0006  3F0A        	sz cz
 142  0007  2800     R  	jmp _L22
 142  0008  1F00     E  	clr ra
 142  0009              _L26:
 144  0009              #line 144 "D:\Wade\Project\Tennis_Ball_Machine\Firmware\Interrupt\Interrupt.c"
 144  0009              ;# 144 "D:\Wade\Project\Tennis_Ball_Machine\Firmware\Interrupt\Interrupt.c" 1
 144  0009  0000        	nop
 144  000A  1480     E  	inc ra
 143  000B              #line 143 "D:\Wade\Project\Tennis_Ball_Machine\Firmware\Interrupt\Interrupt.c"
 143  000B  0700     E  	mov a,ra
 143  000C  0A19        	sub a,25
 143  000D  390A        	snz z
 143  000E  2800     R  	jmp _L26
 142  000F              #line 142 "D:\Wade\Project\Tennis_Ball_Machine\Firmware\Interrupt\Interrupt.c"
 142  000F  1480     E  	inc rb
 142  0010  3D0A        	sz z
 142  0011  1480     E  	inc rc
 142  0012  2800     R  	jmp _L23
 142  0013              _L22:
 142  0013  0003        	ret
 142  0014              _delay endp
 142  0014              #line 142 "D:\Wade\Project\Tennis_Ball_Machine\Firmware\Interrupt\Interrupt.c"
 142  0014              #pragma debug scope 1 1
 142  0014              ___wdtc equ [62]
 142  0014              ___scc equ [58]
 142  0014              ___hircc equ [59]
 142  0014              ___integ equ [57]
 142  0014              ___pgc equ [40]
 142  0014              ___pg equ [39]
 142  0014              ___pdc equ [31]
 142  0014              ___pdpu equ [32]
 142  0014              ___pd equ [30]
 142  0014              public _main
 142  0014              #pragma debug scope 11 1
  25  0014              #line 25 "D:\Wade\Project\Tennis_Ball_Machine\Firmware\Interrupt\Interrupt.c"
  25  0014              IFDEF WITH_DEFAULT_STARTUP
  25  0014              extern _main_initial0:near
  25  0014              extern _main_startup:near
  25  0014              ENDIF
  25  0014              
  25  0014              ROMBANK 0 @start
  25  0000              @start .section com_l 'code'
  25  0000              _main_startup1:
  25  0000              @start .section com_e 'code'
  25  0000  0F00     R  	mov a,bank _main
  25  0001  008B        	mov bp,a
  25  0002  2800     R  	jmp _main
  25  0003              
  25  0000              _main .section 'code'
"File: Interrupt.c   Assembler  Version HGASM0202      Page 8

  25  0000              _main proc
  26  0000              #line 26 "D:\Wade\Project\Tennis_Ball_Machine\Firmware\Interrupt\Interrupt.c"
  26  0000  0FAB        	mov a,171
  26  0001  00BE        	mov [62],a
  27  0002              #line 27 "D:\Wade\Project\Tennis_Ball_Machine\Firmware\Interrupt\Interrupt.c"
  27  0002  0F01        	mov a,1
  27  0003  00BA        	mov [58],a
  28  0004              #line 28 "D:\Wade\Project\Tennis_Ball_Machine\Firmware\Interrupt\Interrupt.c"
  28  0004  0F03        	mov a,3
  28  0005  00BB        	mov [59],a
  30  0006              #line 30 "D:\Wade\Project\Tennis_Ball_Machine\Firmware\Interrupt\Interrupt.c"
  30  0006              	fcall _UART_Setup
  32  000D              #line 32 "D:\Wade\Project\Tennis_Ball_Machine\Firmware\Interrupt\Interrupt.c"
  32  000D  0F01        	mov a,1
  32  000E  00B9        	mov [57],a
  33  000F              #line 33 "D:\Wade\Project\Tennis_Ball_Machine\Firmware\Interrupt\Interrupt.c"
  33  000F  3610        	clr [16].4
  34  0010              #line 34 "D:\Wade\Project\Tennis_Ball_Machine\Firmware\Interrupt\Interrupt.c"
  34  0010  3090        	set [16].1
  36  0011              #line 36 "D:\Wade\Project\Tennis_Ball_Machine\Firmware\Interrupt\Interrupt.c"
  36  0011              	fcall _stm_setup
  37  0018              #line 37 "D:\Wade\Project\Tennis_Ball_Machine\Firmware\Interrupt\Interrupt.c"
  37  0018  B1B9 0001   	lset [313].3
  39  001A              #line 39 "D:\Wade\Project\Tennis_Ball_Machine\Firmware\Interrupt\Interrupt.c"
  39  001A  1F28        	clr [40]
  40  001B              #line 40 "D:\Wade\Project\Tennis_Ball_Machine\Firmware\Interrupt\Interrupt.c"
  40  001B  1F27        	clr [39]
  42  001C              #line 42 "D:\Wade\Project\Tennis_Ball_Machine\Firmware\Interrupt\Interrupt.c"
  42  001C  321F        	set [31].4
  43  001D              #line 43 "D:\Wade\Project\Tennis_Ball_Machine\Firmware\Interrupt\Interrupt.c"
  43  001D  3220        	set [32].4
  45  001E              #line 45 "D:\Wade\Project\Tennis_Ball_Machine\Firmware\Interrupt\Interrupt.c"
  45  001E  0F53        	mov a,83
  45  001F              	fcall _Send_Data
  46  0026              #line 46 "D:\Wade\Project\Tennis_Ball_Machine\Firmware\Interrupt\Interrupt.c"
  46  0026  0F74        	mov a,116
  46  0027              	fcall _Send_Data
  47  002E              #line 47 "D:\Wade\Project\Tennis_Ball_Machine\Firmware\Interrupt\Interrupt.c"
  47  002E  0F61        	mov a,97
  47  002F              	fcall _Send_Data
  48  0036              #line 48 "D:\Wade\Project\Tennis_Ball_Machine\Firmware\Interrupt\Interrupt.c"
  48  0036  0F72        	mov a,114
  48  0037              	fcall _Send_Data
  49  003E              #line 49 "D:\Wade\Project\Tennis_Ball_Machine\Firmware\Interrupt\Interrupt.c"
  49  003E  0F74        	mov a,116
  49  003F              	fcall _Send_Data
  51  0046              #line 51 "D:\Wade\Project\Tennis_Ball_Machine\Firmware\Interrupt\Interrupt.c"
  51  0046  0FE6        	mov a,230
  51  0047  80BD 0001   	lmov [317],a
  51  0049  9F3E 0001   	lclr [318]
  51  004B              _L28:
  53  004B              #line 53 "D:\Wade\Project\Tennis_Ball_Machine\Firmware\Interrupt\Interrupt.c"
  53  004B  3E1E        	sz [30].4
  53  004C  2800     R  	jmp _L31
  55  004D              #line 55 "D:\Wade\Project\Tennis_Ball_Machine\Firmware\Interrupt\Interrupt.c"
  55  004D  3327        	set [39].6
  55  004E  2800     R  	jmp _L28
  55  004F              _L31:
  57  004F              #line 57 "D:\Wade\Project\Tennis_Ball_Machine\Firmware\Interrupt\Interrupt.c"
  57  004F  0F20        	mov a,32
"File: Interrupt.c   Assembler  Version HGASM0202      Page 9

  57  0050  0080     R  	mov _delay_2[0],a
  57  0051  0F4E        	mov a,78
  57  0052  0080     R  	mov _delay_2[1],a
  57  0053              	fcall _delay
  59  005A              #line 59 "D:\Wade\Project\Tennis_Ball_Machine\Firmware\Interrupt\Interrupt.c"
  59  005A  0F3F        	mov a,63
  59  005B  06A7        	andm a,[39]
  60  005C              #line 60 "D:\Wade\Project\Tennis_Ball_Machine\Firmware\Interrupt\Interrupt.c"
  60  005C  0F10        	mov a,16
  60  005D  0080     R  	mov _delay_2[0],a
  60  005E  0F27        	mov a,39
  60  005F  0080     R  	mov _delay_2[1],a
  60  0060              	fcall _delay
  64  0067              #line 64 "D:\Wade\Project\Tennis_Ball_Machine\Firmware\Interrupt\Interrupt.c"
  64  0067  33A7        	set [39].7
  65  0068              #line 65 "D:\Wade\Project\Tennis_Ball_Machine\Firmware\Interrupt\Interrupt.c"
  65  0068  0F20        	mov a,32
  65  0069  0080     R  	mov _delay_2[0],a
  65  006A  0F4E        	mov a,78
  65  006B  0080     R  	mov _delay_2[1],a
  65  006C              	fcall _delay
  67  0073              #line 67 "D:\Wade\Project\Tennis_Ball_Machine\Firmware\Interrupt\Interrupt.c"
  67  0073  0F3F        	mov a,63
  67  0074  06A7        	andm a,[39]
  68  0075              #line 68 "D:\Wade\Project\Tennis_Ball_Machine\Firmware\Interrupt\Interrupt.c"
  68  0075  0F10        	mov a,16
  68  0076  0080     R  	mov _delay_2[0],a
  68  0077  0F27        	mov a,39
  68  0078  0080     R  	mov _delay_2[1],a
  68  0079              	fcall _delay
  70  0080              #line 70 "D:\Wade\Project\Tennis_Ball_Machine\Firmware\Interrupt\Interrupt.c"
  70  0080  3327        	set [39].6
  70  0081  2800     R  	jmp _L31
  70  0082  2800     R  	jmp $
  70  0083              _main endp
  70  0083              
  70  0083              @dummy endp
  70  0083              
  70  0083              #line 70 "D:\Wade\Project\Tennis_Ball_Machine\Firmware\Interrupt\Interrupt.c"
  70  0083              #pragma debug scope 1 1
  70  0083              public _dir
  70  0000              @HCCINIT	.section 'data'
  16  0000              #line 16 "D:\Wade\Project\Tennis_Ball_Machine\Firmware\Interrupt\Interrupt.c"
  16  0000              @HCCINIT_dir .section 'data'
  16  0000              _dir label byte
  16  0000              #pragma debug variable 7 1 _dir "dir"
  16  0000              	db 82
  16  0000              @ROMDATA_BASE .section inpage 'code'
  16  0000              	db 82
  16  0001              @HCCINIT_dir .section 'data'
  16  0001              public _kn
   7  0001              #line 7 "D:\Wade\Project\Tennis_Ball_Machine\Firmware\Interrupt\Interrupt.c"
   7  0000              @HCCINIT_kn .section 'data'
   7  0000              _kn label byte
   7  0000              #pragma debug variable 10 1 _kn "kn"
   7  0000              	db 0
   7  0001              @ROMDATA_BASE .section inpage 'code'
   7  0001              	db 0
   7  0001              @HCCINIT_kn .section 'data'
   7  0001              	db 0
"File: Interrupt.c   Assembler  Version HGASM0202      Page 10

   7  0001              @ROMDATA_BASE .section inpage 'code'
   7  0001              	db 0
   7  0002              @HCCINIT_kn .section 'data'
   6  0002              #line 6 "D:\Wade\Project\Tennis_Ball_Machine\Firmware\Interrupt\Interrupt.c"
   6  0002              public _Data
   6  0000              @HCCINIT0_Data .section 'data'
   6  0000  000A[       _Data	db 10 dup(0)
            00
            ]
   6  000A              #pragma debug array 42 8 10 1
   6  000A              #pragma debug array 42 8 10 1
   6  000A              #pragma debug variable 42 1 _Data "Data"
   6  000A              
   6  0000              @HCCINIT .section 'data'
   5  0000              #line 5 "D:\Wade\Project\Tennis_Ball_Machine\Firmware\Interrupt\Interrupt.c"
   5  0000              public _R_Data
   5  0000              @HCCINIT0_R_Data .section 'data'
   5  0000  000A[       _R_Data	db 10 dup(0)
            00
            ]
   5  000A              #pragma debug variable 42 1 _R_Data "R_Data"
   5  000A              
   5  0000              @HCCINIT .section 'data'
   5  0000              #pragma debug struct_end
   5  0000              #pragma debug struct_end
   5  0000              #pragma debug union_end
   5  0000              #pragma debug union_end
   5  0000              #pragma debug variable 44 1 ___intc0 "__intc0" 1
   5  0000              #pragma debug struct_end
   5  0000              #pragma debug struct_end
   5  0000              #pragma debug union_end
   5  0000              #pragma debug union_end
   5  0000              #pragma debug variable 46 1 ___intc3 "__intc3" 1
   5  0000              #pragma debug struct_end
   5  0000              #pragma debug struct_end
   5  0000              #pragma debug union_end
   5  0000              #pragma debug union_end
   5  0000              #pragma debug variable 48 1 ___pd "__pd" 1
   5  0000              #pragma debug struct_end
   5  0000              #pragma debug struct_end
   5  0000              #pragma debug union_end
   5  0000              #pragma debug union_end
   5  0000              #pragma debug variable 50 1 ___pdc "__pdc" 1
   5  0000              #pragma debug struct_end
   5  0000              #pragma debug struct_end
   5  0000              #pragma debug union_end
   5  0000              #pragma debug union_end
   5  0000              #pragma debug variable 52 1 ___pdpu "__pdpu" 1
   5  0000              #pragma debug struct_end
   5  0000              #pragma debug struct_end
   5  0000              #pragma debug union_end
   5  0000              #pragma debug union_end
   5  0000              #pragma debug variable 54 1 ___pg "__pg" 1
   5  0000              #pragma debug struct_end
   5  0000              #pragma debug struct_end
   5  0000              #pragma debug union_end
   5  0000              #pragma debug union_end
   5  0000              #pragma debug variable 56 1 ___pgc "__pgc" 1
   5  0000              #pragma debug struct_end
   5  0000              #pragma debug struct_end
"File: Interrupt.c   Assembler  Version HGASM0202      Page 11

   5  0000              #pragma debug union_end
   5  0000              #pragma debug union_end
   5  0000              #pragma debug variable 58 1 ___mfi5 "__mfi5" 1
   5  0000              #pragma debug struct_end
   5  0000              #pragma debug struct_end
   5  0000              #pragma debug union_end
   5  0000              #pragma debug union_end
   5  0000              #pragma debug variable 60 1 ___integ "__integ" 1
   5  0000              #pragma debug struct_end
   5  0000              #pragma debug struct_end
   5  0000              #pragma debug union_end
   5  0000              #pragma debug union_end
   5  0000              #pragma debug variable 62 1 ___scc "__scc" 1
   5  0000              #pragma debug struct_end
   5  0000              #pragma debug struct_end
   5  0000              #pragma debug union_end
   5  0000              #pragma debug union_end
   5  0000              #pragma debug variable 64 1 ___hircc "__hircc" 1
   5  0000              #pragma debug struct_end
   5  0000              #pragma debug struct_end
   5  0000              #pragma debug union_end
   5  0000              #pragma debug union_end
   5  0000              #pragma debug variable 66 1 ___wdtc "__wdtc" 1
   5  0000              #pragma debug struct_end
   5  0000              #pragma debug struct_end
   5  0000              #pragma debug union_end
   5  0000              #pragma debug union_end
   5  0000              #pragma debug variable 68 1 ___stm0c0 "__stm0c0" 1
   5  0000              #pragma debug struct_end
   5  0000              #pragma debug struct_end
   5  0000              #pragma debug union_end
   5  0000              #pragma debug union_end
   5  0000              #pragma debug variable 70 1 ___stm0c1 "__stm0c1" 1
   5  0000              #pragma debug variable 8 1 ___stm0al "__stm0al" 1
   5  0000              #pragma debug variable 8 1 ___stm0ah "__stm0ah" 1
   5  0000              #pragma debug struct_end
   5  0000              #pragma debug struct_end
   5  0000              #pragma debug union_end
   5  0000              #pragma debug union_end
   5  0000              #pragma debug variable 72 1 ___stm0rp "__stm0rp" 1
   5  0000              #pragma debug struct_end
   5  0000              #pragma debug struct_end
   5  0000              #pragma debug union_end
   5  0000              #pragma debug union_end
   5  0000              #pragma debug variable 74 1 ___u0sr "__u0sr" 1
   5  0000              #pragma debug struct_end
   5  0000              #pragma debug struct_end
   5  0000              #pragma debug union_end
   5  0000              #pragma debug union_end
   5  0000              #pragma debug variable 76 1 ___u0cr1 "__u0cr1" 1
   5  0000              #pragma debug struct_end
   5  0000              #pragma debug struct_end
   5  0000              #pragma debug union_end
   5  0000              #pragma debug union_end
   5  0000              #pragma debug variable 78 1 ___u0cr2 "__u0cr2" 1
   5  0000              #pragma debug variable 8 1 ___txr_rxr0 "__txr_rxr0" 1
   5  0000              #pragma debug variable 8 1 ___brg0 "__brg0" 1
   5  0000              #pragma debug struct_end
   5  0000              #pragma debug struct_end
   5  0000              #pragma debug union_end
"File: Interrupt.c   Assembler  Version HGASM0202      Page 12

   5  0000              #pragma debug union_end
   5  0000              #pragma debug variable 80 1 ___stm2c0 "__stm2c0" 1
   5  0000              #pragma debug struct_end
   5  0000              #pragma debug struct_end
   5  0000              #pragma debug union_end
   5  0000              #pragma debug union_end
   5  0000              #pragma debug variable 82 1 ___stm2c1 "__stm2c1" 1
   5  0000              #pragma debug variable 8 1 ___stm2al "__stm2al" 1
   5  0000              #pragma debug variable 8 1 ___stm2ah "__stm2ah" 1
   5  0000              #pragma debug struct_end
   5  0000              #pragma debug struct_end
   5  0000              #pragma debug union_end
   5  0000              #pragma debug union_end
   5  0000              #pragma debug variable 84 1 ___stm2rp "__stm2rp" 1
   5  0000              #pragma debug struct_end
   5  0000              #pragma debug struct_end
   5  0000              #pragma debug union_end
   5  0000              #pragma debug union_end
   5  0000              #pragma debug variable 86 1 ___pas1 "__pas1" 1
   5  0000              #pragma debug struct_end
   5  0000              #pragma debug struct_end
   5  0000              #pragma debug union_end
   5  0000              #pragma debug union_end
   5  0000              #pragma debug variable 88 1 ___pcs1 "__pcs1" 1
   5  0000              #pragma debug struct_end
   5  0000              #pragma debug struct_end
   5  0000              #pragma debug union_end
   5  0000              #pragma debug union_end
   5  0000              #pragma debug variable 90 1 ___pfs1 "__pfs1" 1
   5  0000              extern r1:byte
   5  0000              extern r2:byte
   5  0000              extern r3:byte
   5  0000              extern r4:byte
   5  0000              extern r5:byte
   5  0000              extern r6:byte
   5  0000              extern r7:byte
  25  0000              #line 25 "D:\Wade\Project\Tennis_Ball_Machine\Firmware\Interrupt\Interrupt.c"
  25  0000              @code .section at 0 'code'
  25  0000  1F0B        	clr bp
  25  0001  2800     R  	jmp _main_startup1
  25  0002              
  25  0002              
  25  0002              ; 
  25  0002              ; Generated by holtek-gcc v3.19, Wed Jul 27 16:09:11 2022
  25  0002              ; Rebuild 718
  25  0002              ; end of file


        0 Errors, 0