"File: UART_test.c   Assembler  Version HGASM0202      Page 1


   1  0000              ; Generated by holtek-gcc v3.19, Wed Jul 20 17:12:47 2022
   2  0000              ; 
   3  0000              ; Configuration:
   4  0000              ;       with long instruction
   5  0000              ;       Multi-ROM, Multi-RAM
   6  0000              ;       bits_per_rom_unit:16
   7  0000              ;       with mp1
   8  0000              ;       with tbhp, address(0x9)
   9  0000              ;          Use tabrd-const
  10  0000              ;       
  11  0000              ; SFR address of long-instruction arch:
  12  0000              ;    mp0 = -1,1,0
  13  0000              ;    mp1 = 4,3,2
  14  0000              ;    mp2 = 14,13,12
  15  0000              ;    tbp = 9,7,8
  16  0000              ;    acc = 5
  17  0000              ;    pcl = 6
  18  0000              ;    status = 10
  19  0000              ;    bp = 11
  20  0000              ;    intc = 16
  21  0000              ;       
  22  0000              ;       
  23  0000              ; use 'tabrdc' instead of 'tabrd'
  24  0000              ;       
  25  0000              
  26  0000              #pragma translator "holtek-gcc 4.6.4" "3.19" "build 20130711"
  27  0000              ; Rebuild 718
  28  0000              
  29  0000              ir equ [2]
  30  0000              mp equ [3]
  31  0000              sbp equ [4]
  32  0000              acc equ [5]
  33  0000              bp equ [11]
  34  0000              tblp equ [7]
  35  0000              tbhp equ [9]
  36  0000              status equ [10]
  37  0000              c equ [10].0
  38  0000              ac equ [10].1
  39  0000              z equ [10].2
  40  0000              ov equ [10].3
  41  0000              cz equ [10].6
  42  0000              sc equ [10].7
  43  0000              intc equ [16]
  44  0000              mduwr0 equ [59h]
  45  0000              mduwr1 equ [5ah]
  46  0000              mduwr2 equ [5bh]
  47  0000              mduwr3 equ [5ch]
  48  0000              mduwr4 equ [5dh]
  49  0000              mduwr5 equ [5eh]
  50  0000              mduwrctrl equ [5fh]
  51  0000              
  52  0000              extern ra:byte
  53  0000              extern rb:byte
  54  0000              extern rc:byte
  55  0000              extern rd:byte
  56  0000              extern re:byte
  57  0000              extern rf:byte
  58  0000              extern rg:byte
  59  0000              extern rh:byte
"File: UART_test.ASM  Assembler  Version HGASM0202      Page 2

  60  0000              extern _Crom2Prom:near
  61  0000              extern _Crom2PromNext:near
  62  0000              
  63  0000              RAMBANK 0 @BITDATASEC, @BITDATASEC1
  64  0000              @HCCINIT	.section 'data'
  65  0000              @HCCINIT0	.section 'data'
  66  0000              @BITDATASEC	 .section 'data'
  67  0000              @BITDATASEC1	 .section 'data'
  68  0000              
  69  0000              #pragma debug scope 1 1
  70  0000              	extern __DELAY3:near
  71  0000              	extern __DELAYX3:near
  72  0000              	extern __DELAYX6:near
  73  0000              	extern __DELAYY5:near
  74  0000              	extern __DELAYY3:near
  75  0000              	extern _builtin_holtek_delay_2:byte
  76  0000              ___pas1 equ [334]
  77  0000              ___u0cr1 equ [273]
  78  0000              ___u0cr2 equ [274]
  79  0000              ___brg0 equ [276]
  80  0000              ___mfi5 equ [56]
  81  0000              ___intc3 equ [19]
  82  0000              ___intc0 equ [16]
  83  0000              public _UART_Setup
  84  0000              #pragma debug scope 2 1

  42  0000              #line 42 "D:\Wade\Project\Tennis_Ball_Machine\Firmware\UART_test\UART_test.c"
  42  0000              _UART_Setup .section 'code'
  42  0000              _UART_Setup proc
  43  0000              #line 43 "D:\Wade\Project\Tennis_Ball_Machine\Firmware\UART_test\UART_test.c"
  43  0000  0FF0        	mov a,240
  43  0001  80CE 0001   	lmov [334],a
  44  0003              #line 44 "D:\Wade\Project\Tennis_Ball_Machine\Firmware\UART_test\UART_test.c"
  44  0003  0F80        	mov a,128
  44  0004  8091 0001   	lmov [273],a
  45  0006              #line 45 "D:\Wade\Project\Tennis_Ball_Machine\Firmware\UART_test\UART_test.c"
  45  0006  0FC4        	mov a,196
  45  0007  8092 0001   	lmov [274],a
  46  0009              #line 46 "D:\Wade\Project\Tennis_Ball_Machine\Firmware\UART_test\UART_test.c"
  46  0009  0F0C        	mov a,12
  46  000A  8094 0001   	lmov [276],a
  47  000C              #line 47 "D:\Wade\Project\Tennis_Ball_Machine\Firmware\UART_test\UART_test.c"
  47  000C  3038        	set [56].0
  48  000D              #line 48 "D:\Wade\Project\Tennis_Ball_Machine\Firmware\UART_test\UART_test.c"
  48  000D  3638        	clr [56].4
  49  000E              #line 49 "D:\Wade\Project\Tennis_Ball_Machine\Firmware\UART_test\UART_test.c"
  49  000E  3193        	set [19].3
  50  000F              #line 50 "D:\Wade\Project\Tennis_Ball_Machine\Firmware\UART_test\UART_test.c"
  50  000F  3010        	set [16].0
  50  0010  0003        	ret
  50  0011              _UART_Setup endp
  50  0011              #line 50 "D:\Wade\Project\Tennis_Ball_Machine\Firmware\UART_test\UART_test.c"
  50  0011              #pragma debug scope 1 1
  50  0011              ___wdtc equ [62]
  50  0011              ___phc equ [43]
  50  0011              ___ph equ [42]
  50  0011              public _main
  50  0011              #pragma debug scope 3 1
  15  0011              #line 15 "D:\Wade\Project\Tennis_Ball_Machine\Firmware\UART_test\UART_test.c"
  15  0011              IFDEF WITH_DEFAULT_STARTUP
"File: UART_test.c   Assembler  Version HGASM0202      Page 3

  15  0011              extern _main_initial0:near
  15  0011              extern _main_startup:near
  15  0011              ENDIF
  15  0011              
  15  0011              ROMBANK 0 @start
  15  0000              @start .section com_l 'code'
  15  0000              _main_startup1:
  15  0000              @start .section com_e 'code'
  15  0000  0F00     R  	mov a,bank _main
  15  0001  008B        	mov bp,a
  15  0002  2800     R  	jmp _main
  15  0003              
  15  0000              _main .section 'code'
  15  0000              _main proc
  15  0000  00              local _main_2 db 1 dup(?)
  16  0001              #line 16 "D:\Wade\Project\Tennis_Ball_Machine\Firmware\UART_test\UART_test.c"
  16  0000  0FAB        	mov a,171
  16  0001  00BE        	mov [62],a
  18  0002              #line 18 "D:\Wade\Project\Tennis_Ball_Machine\Firmware\UART_test\UART_test.c"
  18  0002              	fcall _UART_Setup
  19  0009              #line 19 "D:\Wade\Project\Tennis_Ball_Machine\Firmware\UART_test\UART_test.c"
  19  0009  342B        	clr [43].0
  20  000A              #line 20 "D:\Wade\Project\Tennis_Ball_Machine\Firmware\UART_test\UART_test.c"
  20  000A  342A        	clr [42].0
  24  000B              #line 24 "D:\Wade\Project\Tennis_Ball_Machine\Firmware\UART_test\UART_test.c"
  24  000B  0700     R  	mov a,_R_Data[0]
  24  000C  0080     R  	mov _main_2[0],a
  24  000D              _L3:
  24  000D              #line 24 "D:\Wade\Project\Tennis_Ball_Machine\Firmware\UART_test\UART_test.c"
  24  000D  0700     R  	mov a,_main_2[0]
  24  000E  0A4F        	sub a,79
  24  000F  390A        	snz z
  24  0010  2800     R  	jmp _L4
  24  0011              _L6:
  26  0011              #line 26 "D:\Wade\Project\Tennis_Ball_Machine\Firmware\UART_test\UART_test.c"
  26  0011  302A        	set [42].0
  26  0012  2800     R  	jmp _L6
  26  0013              _L4:
  28  0013              #line 28 "D:\Wade\Project\Tennis_Ball_Machine\Firmware\UART_test\UART_test.c"
  28  0013  0700     R  	mov a,_main_2[0]
  28  0014  0A4E        	sub a,78
  28  0015  390A        	snz z
  28  0016  2800     R  	jmp _L3
  28  0017              _L7:
  30  0017              #line 30 "D:\Wade\Project\Tennis_Ball_Machine\Firmware\UART_test\UART_test.c"
  30  0017  342A        	clr [42].0
  30  0018  2800     R  	jmp _L7
  30  0019  2800     R  	jmp $
  30  001A              _main endp
  30  001A              
  30  001A              @dummy endp
  30  001A              
  30  001A              #line 30 "D:\Wade\Project\Tennis_Ball_Machine\Firmware\UART_test\UART_test.c"
  30  001A              #pragma debug scope 1 1
  30  001A              ___u0sr equ [272]
  30  001A              ___txr_rxr0 equ [275]
  30  001A              public _Read_Data
  30  001A              #pragma debug scope 4 1
  54  001A              #line 54 "D:\Wade\Project\Tennis_Ball_Machine\Firmware\UART_test\UART_test.c"
  54  0000              _Read_Data .section 'code'
"File: UART_test.c   Assembler  Version HGASM0202      Page 4

  54  0000              _Read_Data proc
  54  0000              _L11:
  55  0000              #line 55 "D:\Wade\Project\Tennis_Ball_Machine\Firmware\UART_test\UART_test.c"
  55  0000  B990 0001   	lsnz [272].3
  55  0002  2800     R  	jmp _L11
  56  0003              #line 56 "D:\Wade\Project\Tennis_Ball_Machine\Firmware\UART_test\UART_test.c"
  56  0003  0700     R  	mov a,_kn[0]
  56  0004  0080     E  	mov rb,a
  56  0005  0700     R  	mov a,_kn[1]
  56  0006  0080     E  	mov rc,a
  56  0007  8713 0001   	lmov a,[275]
  56  0009  0080     E  	mov ra,a
  56  000A  0F00     R  	mov a,low offset _R_Data
  56  000B  0300     E  	add a,rb
  56  000C  0083        	mov mp,a
  56  000D  0F00     R  	mov a,high offset _R_Data
  56  000E  1300     E  	adc a,rc
  56  000F  0084        	mov sbp,a
  56  0010  0700     E  	mov a,ra
  56  0011  0082        	mov ir,a
  57  0012              #line 57 "D:\Wade\Project\Tennis_Ball_Machine\Firmware\UART_test\UART_test.c"
  57  0012  0700     E  	mov a,ra
  57  0013  0A2F        	sub a,47
  57  0014  3D0A        	sz z
  57  0015  2800     R  	jmp _L12
  57  0016  0F09        	mov a,9
  57  0017  0200     E  	sub a,rb
  57  0018  0F00        	mov a,0
  57  0019  1200     E  	sbc a,rc
  57  001A  3C0A        	sz c
  57  001B  2800     R  	jmp _L13
  57  001C              _L12:
  57  001C  1F00     R  	clr _kn[0]
  57  001D  1F00     R  	clr _kn[1]
  57  001E  2800     R  	jmp _L9
  57  001F              _L13:
  58  001F              #line 58 "D:\Wade\Project\Tennis_Ball_Machine\Firmware\UART_test\UART_test.c"
  58  001F  0F01        	mov a,1
  58  0020  0300     E  	add a,rb
  58  0021  0080     R  	mov _kn[0],a
  58  0022  0F00        	mov a,0
  58  0023  1300     E  	adc a,rc
  58  0024  0080     R  	mov _kn[1],a
  58  0025              _L9:
  58  0025  0003        	ret
  58  0026              _Read_Data endp
  58  0026              #line 58 "D:\Wade\Project\Tennis_Ball_Machine\Firmware\UART_test\UART_test.c"
  58  0026              #pragma debug scope 1 1
  58  0026              public _Uart_R
  58  0026              #pragma debug scope 5 1
  36  0026              #line 36 "D:\Wade\Project\Tennis_Ball_Machine\Firmware\UART_test\UART_test.c"
  36  0026              rombank 0 @Uart_R_code
  36  0000              @Uart_R_code .section at 60 'code'
  36  0000  0080     E  	mov r1,a
  36  0001  070B        	mov a,bp
  36  0002  1F0B        	clr bp
  36  0003  2800     R  	jmp _Uart_R
  36  0004              ROMBANK 0 _Uart_R
  36  0004              #pragma debug scope 1 1
  36  0004              @dummy60 endp
"File: UART_test.c   Assembler  Version HGASM0202      Page 5

  36  0004              #pragma debug scope 6 1
  36  0000              _Uart_R .section 'code'
  36  0000              _Uart_R proc
  36  0000  0080     E  	mov r2,a
  36  0001  070A        	mov a, status
  36  0002  0080     E  	mov r3,a
  36  0003  0703        	mov a,mp
  36  0004  0080     E  	mov r4,a
  36  0005  0704        	mov a,sbp
  36  0006  0080     E  	mov r5,a
  36  0007  0707        	mov a,tblp
  36  0008  0080     E  	mov r6,a
  36  0009  0709        	mov a,tbhp
  36  000A  0080     E  	mov r7,a
  37  000B              #line 37 "D:\Wade\Project\Tennis_Ball_Machine\Firmware\UART_test\UART_test.c"
  37  000B              	fcall _Read_Data
  38  0012              #line 38 "D:\Wade\Project\Tennis_Ball_Machine\Firmware\UART_test\UART_test.c"
  38  0012  3638        	clr [56].4
  38  0013  0700     E  	mov a,r2
  38  0014  008B        	mov bp,a
  38  0015  0700     E  	mov a,r3
  38  0016  008A        	mov status,a
  38  0017  0700     E  	mov a,r4
  38  0018  0083        	mov mp,a
  38  0019  0700     E  	mov a,r5
  38  001A  0084        	mov sbp,a
  38  001B  0700     E  	mov a,r6
  38  001C  0087        	mov tblp,a
  38  001D  0700     E  	mov a,r7
  38  001E  0089        	mov tbhp,a
  38  001F  1D05        	tabrdc acc
  38  0020  0700     E  	mov a,r1
  38  0021  0004        	reti
  38  0022              _Uart_R endp
  38  0022              
  38  0022              #line 38 "D:\Wade\Project\Tennis_Ball_Machine\Firmware\UART_test\UART_test.c"
  38  0022              #pragma debug scope 1 1
  38  0022              public _kn
  38  0000              @HCCINIT	.section 'data'
   7  0000              #line 7 "D:\Wade\Project\Tennis_Ball_Machine\Firmware\UART_test\UART_test.c"
   7  0000              @HCCINIT_kn .section 'data'
   7  0000              _kn label byte
   7  0000              #pragma debug variable 10 1 _kn "kn"
   7  0000              	db 0
   7  0000              @ROMDATA_BASE .section inpage 'code'
   7  0000              	db 0
   7  0001              @HCCINIT_kn .section 'data'
   7  0001              	db 0
   7  0001              @ROMDATA_BASE .section inpage 'code'
   7  0001              	db 0
   7  0002              @HCCINIT_kn .section 'data'
   6  0002              #line 6 "D:\Wade\Project\Tennis_Ball_Machine\Firmware\UART_test\UART_test.c"
   6  0002              public _Data
   6  0000              @HCCINIT0_Data .section 'data'
   6  0000  000A[       _Data	db 10 dup(0)
            00
            ]
   6  000A              #pragma debug array 42 8 10 1
   6  000A              #pragma debug array 42 8 10 1
   6  000A              #pragma debug variable 42 1 _Data "Data"
"File: UART_test.c   Assembler  Version HGASM0202      Page 6

   6  000A              
   6  0000              @HCCINIT .section 'data'
   5  0000              #line 5 "D:\Wade\Project\Tennis_Ball_Machine\Firmware\UART_test\UART_test.c"
   5  0000              public _R_Data
   5  0000              @HCCINIT0_R_Data .section 'data'
   5  0000  000A[       _R_Data	db 10 dup(0)
            00
            ]
   5  000A              #pragma debug variable 42 1 _R_Data "R_Data"
   5  000A              
   5  0000              @HCCINIT .section 'data'
   5  0000              #pragma debug struct_end
   5  0000              #pragma debug struct_end
   5  0000              #pragma debug union_end
   5  0000              #pragma debug union_end
   5  0000              #pragma debug variable 44 1 ___intc0 "__intc0" 1
   5  0000              #pragma debug struct_end
   5  0000              #pragma debug struct_end
   5  0000              #pragma debug union_end
   5  0000              #pragma debug union_end
   5  0000              #pragma debug variable 46 1 ___intc3 "__intc3" 1
   5  0000              #pragma debug struct_end
   5  0000              #pragma debug struct_end
   5  0000              #pragma debug union_end
   5  0000              #pragma debug union_end
   5  0000              #pragma debug variable 48 1 ___ph "__ph" 1
   5  0000              #pragma debug struct_end
   5  0000              #pragma debug struct_end
   5  0000              #pragma debug union_end
   5  0000              #pragma debug union_end
   5  0000              #pragma debug variable 50 1 ___phc "__phc" 1
   5  0000              #pragma debug struct_end
   5  0000              #pragma debug struct_end
   5  0000              #pragma debug union_end
   5  0000              #pragma debug union_end
   5  0000              #pragma debug variable 52 1 ___mfi5 "__mfi5" 1
   5  0000              #pragma debug struct_end
   5  0000              #pragma debug struct_end
   5  0000              #pragma debug union_end
   5  0000              #pragma debug union_end
   5  0000              #pragma debug variable 54 1 ___wdtc "__wdtc" 1
   5  0000              #pragma debug struct_end
   5  0000              #pragma debug struct_end
   5  0000              #pragma debug union_end
   5  0000              #pragma debug union_end
   5  0000              #pragma debug variable 56 1 ___u0sr "__u0sr" 1
   5  0000              #pragma debug struct_end
   5  0000              #pragma debug struct_end
   5  0000              #pragma debug union_end
   5  0000              #pragma debug union_end
   5  0000              #pragma debug variable 58 1 ___u0cr1 "__u0cr1" 1
   5  0000              #pragma debug struct_end
   5  0000              #pragma debug struct_end
   5  0000              #pragma debug union_end
   5  0000              #pragma debug union_end
   5  0000              #pragma debug variable 60 1 ___u0cr2 "__u0cr2" 1
   5  0000              #pragma debug variable 8 1 ___txr_rxr0 "__txr_rxr0" 1
   5  0000              #pragma debug variable 8 1 ___brg0 "__brg0" 1
   5  0000              #pragma debug struct_end
   5  0000              #pragma debug struct_end
"File: UART_test.c   Assembler  Version HGASM0202      Page 7

   5  0000              #pragma debug union_end
   5  0000              #pragma debug union_end
   5  0000              #pragma debug variable 62 1 ___pas1 "__pas1" 1
   5  0000              extern r1:byte
   5  0000              extern r2:byte
   5  0000              extern r3:byte
   5  0000              extern r4:byte
   5  0000              extern r5:byte
   5  0000              extern r6:byte
   5  0000              extern r7:byte
  15  0000              #line 15 "D:\Wade\Project\Tennis_Ball_Machine\Firmware\UART_test\UART_test.c"
  15  0000              @code .section at 0 'code'
  15  0000  1F0B        	clr bp
  15  0001  2800     R  	jmp _main_startup1
  15  0002              
  15  0002              
  15  0002              ; 
  15  0002              ; Generated by holtek-gcc v3.19, Wed Jul 20 17:12:47 2022
  15  0002              ; Rebuild 718
  15  0002              ; end of file


        0 Errors, 0