"File: UART_v1.c     Assembler  Version HGASM0202      Page 1


   1  0000              ; Generated by holtek-gcc v3.19, Tue Oct 25 14:54:47 2022
   2  0000              ; 
   3  0000              ; Configuration:
   4  0000              ;       with long instruction
   5  0000              ;       Multi-ROM, Multi-RAM
   6  0000              ;       bits_per_rom_unit:16
   7  0000              ;       with mp1
   8  0000              ;       with tbhp, address(0x9)
   9  0000              ;          Use tabrd-const
  10  0000              ;       
  11  0000              ; SFR address of long-instruction arch:
  12  0000              ;    mp0 = -1,1,0
  13  0000              ;    mp1 = 4,3,2
  14  0000              ;    mp2 = 14,13,12
  15  0000              ;    tbp = 9,7,8
  16  0000              ;    acc = 5
  17  0000              ;    pcl = 6
  18  0000              ;    status = 10
  19  0000              ;    bp = 11
  20  0000              ;    intc = 16
  21  0000              ;       
  22  0000              ;       
  23  0000              ; use 'tabrdc' instead of 'tabrd'
  24  0000              ;       
  25  0000              
  26  0000              #pragma translator "holtek-gcc 4.6.4" "3.19" "build 20130711"
  27  0000              ; Rebuild 718
  28  0000              
  29  0000              ir equ [2]
  30  0000              mp equ [3]
  31  0000              sbp equ [4]
  32  0000              acc equ [5]
  33  0000              bp equ [11]
  34  0000              tblp equ [7]
  35  0000              tbhp equ [9]
  36  0000              status equ [10]
  37  0000              c equ [10].0
  38  0000              ac equ [10].1
  39  0000              z equ [10].2
  40  0000              ov equ [10].3
  41  0000              cz equ [10].6
  42  0000              sc equ [10].7
  43  0000              intc equ [16]
  44  0000              mduwr0 equ [59h]
  45  0000              mduwr1 equ [5ah]
  46  0000              mduwr2 equ [5bh]
  47  0000              mduwr3 equ [5ch]
  48  0000              mduwr4 equ [5dh]
  49  0000              mduwr5 equ [5eh]
  50  0000              mduwrctrl equ [5fh]
  51  0000              
  52  0000              extern ra:byte
  53  0000              extern rb:byte
  54  0000              extern rc:byte
  55  0000              extern rd:byte
  56  0000              extern re:byte
  57  0000              extern rf:byte
  58  0000              extern rg:byte
  59  0000              extern rh:byte
"File: UART_v1.ASM   Assembler  Version HGASM0202      Page 2

  60  0000              extern _Crom2Prom:near
  61  0000              extern _Crom2PromNext:near
  62  0000              
  63  0000              RAMBANK 0 @BITDATASEC, @BITDATASEC1
  64  0000              @HCCINIT	.section 'data'
  65  0000              @HCCINIT0	.section 'data'
  66  0000              @BITDATASEC	 .section 'data'
  67  0000              @BITDATASEC1	 .section 'data'
  68  0000              
  69  0000              #pragma debug scope 1 1
  70  0000              	extern __DELAY3:near
  71  0000              	extern __DELAYX3:near
  72  0000              	extern __DELAYX6:near
  73  0000              	extern __DELAYY5:near
  74  0000              	extern __DELAYY3:near
  75  0000              	extern _builtin_holtek_delay_2:byte
  76  0000              ___pas1 equ [334]
  77  0000              ___u0cr1 equ [273]
  78  0000              ___u0cr2 equ [274]
  79  0000              ___brg0 equ [276]
  80  0000              ___mfi5 equ [56]
  81  0000              ___intc3 equ [19]
  82  0000              ___intc0 equ [16]
  83  0000              public _UART_Setup
  84  0000              #pragma debug scope 2 1

  68  0000              #line 68 "D:\Wade\Project\Tennis_Ball_Machine\Firmware\UART_v1\UART_v1.c"
  68  0000              _UART_Setup .section 'code'
  68  0000              _UART_Setup proc
  69  0000              #line 69 "D:\Wade\Project\Tennis_Ball_Machine\Firmware\UART_v1\UART_v1.c"
  69  0000  0FF0        	mov a,240
  69  0001  80CE 0001   	lmov [334],a
  70  0003              #line 70 "D:\Wade\Project\Tennis_Ball_Machine\Firmware\UART_v1\UART_v1.c"
  70  0003  0F80        	mov a,128
  70  0004  8091 0001   	lmov [273],a
  71  0006              #line 71 "D:\Wade\Project\Tennis_Ball_Machine\Firmware\UART_v1\UART_v1.c"
  71  0006  0FC4        	mov a,196
  71  0007  8092 0001   	lmov [274],a
  72  0009              #line 72 "D:\Wade\Project\Tennis_Ball_Machine\Firmware\UART_v1\UART_v1.c"
  72  0009  0F0C        	mov a,12
  72  000A  8094 0001   	lmov [276],a
  73  000C              #line 73 "D:\Wade\Project\Tennis_Ball_Machine\Firmware\UART_v1\UART_v1.c"
  73  000C  3038        	set [56].0
  74  000D              #line 74 "D:\Wade\Project\Tennis_Ball_Machine\Firmware\UART_v1\UART_v1.c"
  74  000D  3638        	clr [56].4
  75  000E              #line 75 "D:\Wade\Project\Tennis_Ball_Machine\Firmware\UART_v1\UART_v1.c"
  75  000E  3193        	set [19].3
  76  000F              #line 76 "D:\Wade\Project\Tennis_Ball_Machine\Firmware\UART_v1\UART_v1.c"
  76  000F  3010        	set [16].0
  76  0010  0003        	ret
  76  0011              _UART_Setup endp
  76  0011              #line 76 "D:\Wade\Project\Tennis_Ball_Machine\Firmware\UART_v1\UART_v1.c"
  76  0011              #pragma debug scope 1 1
  76  0011              ___u0sr equ [272]
  76  0011              ___txr_rxr0 equ [275]
  76  0011              public _Read_Data
  76  0011              #pragma debug scope 3 1
  80  0011              #line 80 "D:\Wade\Project\Tennis_Ball_Machine\Firmware\UART_v1\UART_v1.c"
  80  0000              _Read_Data .section 'code'
  80  0000              _Read_Data proc
"File: UART_v1.c     Assembler  Version HGASM0202      Page 3

  80  0000              _L4:
  81  0000              #line 81 "D:\Wade\Project\Tennis_Ball_Machine\Firmware\UART_v1\UART_v1.c"
  81  0000  B990 0001   	lsnz [272].3
  81  0002  2800     R  	jmp _L4
  82  0003              #line 82 "D:\Wade\Project\Tennis_Ball_Machine\Firmware\UART_v1\UART_v1.c"
  82  0003  0700     R  	mov a,_kn[0]
  82  0004  0080     E  	mov rb,a
  82  0005  0700     R  	mov a,_kn[1]
  82  0006  0080     E  	mov rc,a
  82  0007  8713 0001   	lmov a,[275]
  82  0009  0080     E  	mov rd,a
  82  000A  1F00     E  	clr re
  82  000B  340A        	clr c
  82  000C  1A00     E  	rlca rb
  82  000D  0080     E  	mov rf,a
  82  000E  1A00     E  	rlca rc
  82  000F  0080     E  	mov rg,a
  82  0010  0F00     R  	mov a,low offset _R_Data
  82  0011  0300     E  	add a,rf
  82  0012  0083        	mov mp,a
  82  0013  0F00     R  	mov a,high offset _R_Data
  82  0014  1300     E  	adc a,rg
  82  0015  0084        	mov sbp,a
  82  0016  0700     E  	mov a,rd
  82  0017  0082        	mov ir,a
  82  0018  1483        	inc mp
  82  0019  0700     E  	mov a,re
  82  001A  0082        	mov ir,a
  83  001B              #line 83 "D:\Wade\Project\Tennis_Ball_Machine\Firmware\UART_v1\UART_v1.c"
  83  001B  0700     E  	mov a,rd
  83  001C  0C2F        	xor a,47
  83  001D  0500     E  	or a,re
  83  001E  3D0A        	sz z
  83  001F  2800     R  	jmp _L5
  83  0020  0F09        	mov a,9
  83  0021  0200     E  	sub a,rb
  83  0022  0F00        	mov a,0
  83  0023  1200     E  	sbc a,rc
  83  0024  3C0A        	sz c
  83  0025  2800     R  	jmp _L6
  83  0026              _L5:
  83  0026  1F00     R  	clr _kn[0]
  83  0027  1F00     R  	clr _kn[1]
  83  0028  2800     R  	jmp _L2
  83  0029              _L6:
  84  0029              #line 84 "D:\Wade\Project\Tennis_Ball_Machine\Firmware\UART_v1\UART_v1.c"
  84  0029  0F01        	mov a,1
  84  002A  0300     E  	add a,rb
  84  002B  0080     R  	mov _kn[0],a
  84  002C  0F00        	mov a,0
  84  002D  1300     E  	adc a,rc
  84  002E  0080     R  	mov _kn[1],a
  84  002F              _L2:
  84  002F  0003        	ret
  84  0030              _Read_Data endp
  84  0030              #line 84 "D:\Wade\Project\Tennis_Ball_Machine\Firmware\UART_v1\UART_v1.c"
  84  0030              #pragma debug scope 1 1
  84  0030              ___pg equ [39]
  84  0030              public _Uart_R
  84  0030              #pragma debug scope 4 1
"File: UART_v1.c     Assembler  Version HGASM0202      Page 4

  60  0030              #line 60 "D:\Wade\Project\Tennis_Ball_Machine\Firmware\UART_v1\UART_v1.c"
  60  0030              rombank 0 @Uart_R_code
  60  0000              @Uart_R_code .section at 60 'code'
  60  0000  0080     E  	mov r1,a
  60  0001  070B        	mov a,bp
  60  0002  1F0B        	clr bp
  60  0003  2800     R  	jmp _Uart_R
  60  0004              ROMBANK 0 _Uart_R
  60  0004              #pragma debug scope 1 1
  60  0004              @dummy60 endp
  60  0004              #pragma debug scope 5 1
  60  0000              _Uart_R .section 'code'
  60  0000              _Uart_R proc
  60  0000  0080     E  	mov r2,a
  60  0001  070A        	mov a, status
  60  0002  0080     E  	mov r3,a
  60  0003  0703        	mov a,mp
  60  0004  0080     E  	mov r4,a
  60  0005  0704        	mov a,sbp
  60  0006  0080     E  	mov r5,a
  60  0007  0707        	mov a,tblp
  60  0008  0080     E  	mov r6,a
  60  0009  0709        	mov a,tbhp
  60  000A  0080     E  	mov r7,a
  61  000B              #line 61 "D:\Wade\Project\Tennis_Ball_Machine\Firmware\UART_v1\UART_v1.c"
  61  000B  30A7        	set [39].1
  62  000C              #line 62 "D:\Wade\Project\Tennis_Ball_Machine\Firmware\UART_v1\UART_v1.c"
  62  000C              	fcall _Read_Data
  63  0013              #line 63 "D:\Wade\Project\Tennis_Ball_Machine\Firmware\UART_v1\UART_v1.c"
  63  0013  3638        	clr [56].4
  64  0014              #line 64 "D:\Wade\Project\Tennis_Ball_Machine\Firmware\UART_v1\UART_v1.c"
  64  0014  34A7        	clr [39].1
  64  0015  0700     E  	mov a,r2
  64  0016  008B        	mov bp,a
  64  0017  0700     E  	mov a,r3
  64  0018  008A        	mov status,a
  64  0019  0700     E  	mov a,r4
  64  001A  0083        	mov mp,a
  64  001B  0700     E  	mov a,r5
  64  001C  0084        	mov sbp,a
  64  001D  0700     E  	mov a,r6
  64  001E  0087        	mov tblp,a
  64  001F  0700     E  	mov a,r7
  64  0020  0089        	mov tbhp,a
  64  0021  1D05        	tabrdc acc
  64  0022  0700     E  	mov a,r1
  64  0023  0004        	reti
  64  0024              _Uart_R endp
  64  0024              
  64  0024              #line 64 "D:\Wade\Project\Tennis_Ball_Machine\Firmware\UART_v1\UART_v1.c"
  64  0024              #pragma debug scope 1 1
  64  0024              public _Send_Data
  64  0024              #pragma debug scope 6 1
  88  0024              #line 88 "D:\Wade\Project\Tennis_Ball_Machine\Firmware\UART_v1\UART_v1.c"
  88  0000              _Send_Data .section 'code'
  88  0000              _Send_Data proc
  88  0000  00              local _Send_Data_2 db 1 dup(?)	; 0,1
  88  0000  0080     R  	mov _Send_Data_2[0],a
  88  0001              #pragma debug variable 7 6 _Send_Data_2+0 "data"
  88  0001              _L15:
"File: UART_v1.c     Assembler  Version HGASM0202      Page 5

  89  0001              #line 89 "D:\Wade\Project\Tennis_Ball_Machine\Firmware\UART_v1\UART_v1.c"
  89  0001  B810 0001   	lsnz [272].0
  89  0003  2800     R  	jmp _L15
  90  0004              #line 90 "D:\Wade\Project\Tennis_Ball_Machine\Firmware\UART_v1\UART_v1.c"
  90  0004  0700     R  	mov a,_Send_Data_2[0]
  90  0005  8093 0001   	lmov [275],a
  90  0007              _L17:
  91  0007              #line 91 "D:\Wade\Project\Tennis_Ball_Machine\Firmware\UART_v1\UART_v1.c"
  91  0007  B890 0001   	lsnz [272].1
  91  0009  2800     R  	jmp _L17
  91  000A  0003        	ret
  91  000B              _Send_Data endp
  91  000B              #line 91 "D:\Wade\Project\Tennis_Ball_Machine\Firmware\UART_v1\UART_v1.c"
  91  000B              #pragma debug scope 1 1
  91  000B              public _delay
  91  000B              #pragma debug scope 7 1
  95  000B              #line 95 "D:\Wade\Project\Tennis_Ball_Machine\Firmware\UART_v1\UART_v1.c"
  95  0000              _delay .section 'code'
  95  0000              _delay proc
  95  0000              public _delay_2
  95  0000  0002[           local _delay_2 db 2 dup(?)	; 2,0
            00
            ]
  95  0002              #pragma debug variable 10 7 _delay_2+0 "dev"
  97  0002              #line 97 "D:\Wade\Project\Tennis_Ball_Machine\Firmware\UART_v1\UART_v1.c"
  97  0000  1F00     E  	clr rb
  97  0001  1F00     E  	clr rc
  97  0002              _L19:
  97  0002              #line 97 "D:\Wade\Project\Tennis_Ball_Machine\Firmware\UART_v1\UART_v1.c"
  97  0002  0700     E  	mov a,rb
  97  0003  0200     R  	sub a,_delay_2[0]
  97  0004  0700     E  	mov a,rc
  97  0005  1200     R  	sbc a,_delay_2[1]
  97  0006  3F0A        	sz cz
  97  0007  2800     R  	jmp _L18
  97  0008  1F00     E  	clr ra
  97  0009              _L22:
  99  0009              #line 99 "D:\Wade\Project\Tennis_Ball_Machine\Firmware\UART_v1\UART_v1.c"
  99  0009              ;# 99 "D:\Wade\Project\Tennis_Ball_Machine\Firmware\UART_v1\UART_v1.c" 1
  99  0009  0000        	nop
  99  000A  1480     E  	inc ra
  98  000B              #line 98 "D:\Wade\Project\Tennis_Ball_Machine\Firmware\UART_v1\UART_v1.c"
  98  000B  0700     E  	mov a,ra
  98  000C  0A19        	sub a,25
  98  000D  390A        	snz z
  98  000E  2800     R  	jmp _L22
  97  000F              #line 97 "D:\Wade\Project\Tennis_Ball_Machine\Firmware\UART_v1\UART_v1.c"
  97  000F  1480     E  	inc rb
  97  0010  3D0A        	sz z
  97  0011  1480     E  	inc rc
  97  0012  2800     R  	jmp _L19
  97  0013              _L18:
  97  0013  0003        	ret
  97  0014              _delay endp
  97  0014              #line 97 "D:\Wade\Project\Tennis_Ball_Machine\Firmware\UART_v1\UART_v1.c"
  97  0014              #pragma debug scope 1 1
  97  0014              ___wdtc equ [62]
  97  0014              ___scc equ [58]
  97  0014              ___hircc equ [59]
  97  0014              ___pgc equ [40]
"File: UART_v1.c     Assembler  Version HGASM0202      Page 6

  97  0014              public _main
  97  0014              #pragma debug scope 8 1
  18  0014              #line 18 "D:\Wade\Project\Tennis_Ball_Machine\Firmware\UART_v1\UART_v1.c"
  18  0014              IFDEF WITH_DEFAULT_STARTUP
  18  0014              extern _main_initial0:near
  18  0014              extern _main_startup:near
  18  0014              ENDIF
  18  0014              
  18  0014              ROMBANK 0 @start
  18  0000              @start .section com_l 'code'
  18  0000              _main_startup1:
  18  0000              @start .section com_e 'code'
  18  0000  0F00     R  	mov a,bank _main
  18  0001  008B        	mov bp,a
  18  0002  2800     R  	jmp _main
  18  0003              
  18  0000              _main .section 'code'
  18  0000              _main proc
  19  0000              #line 19 "D:\Wade\Project\Tennis_Ball_Machine\Firmware\UART_v1\UART_v1.c"
  19  0000  0FAB        	mov a,171
  19  0001  00BE        	mov [62],a
  20  0002              #line 20 "D:\Wade\Project\Tennis_Ball_Machine\Firmware\UART_v1\UART_v1.c"
  20  0002  0F01        	mov a,1
  20  0003  00BA        	mov [58],a
  21  0004              #line 21 "D:\Wade\Project\Tennis_Ball_Machine\Firmware\UART_v1\UART_v1.c"
  21  0004  0F03        	mov a,3
  21  0005  00BB        	mov [59],a
  23  0006              #line 23 "D:\Wade\Project\Tennis_Ball_Machine\Firmware\UART_v1\UART_v1.c"
  23  0006              	fcall _UART_Setup
  25  000D              #line 25 "D:\Wade\Project\Tennis_Ball_Machine\Firmware\UART_v1\UART_v1.c"
  25  000D  1F28        	clr [40]
  26  000E              #line 26 "D:\Wade\Project\Tennis_Ball_Machine\Firmware\UART_v1\UART_v1.c"
  26  000E  0FFC        	mov a,252
  26  000F  06A7        	andm a,[39]
  27  0010              #line 27 "D:\Wade\Project\Tennis_Ball_Machine\Firmware\UART_v1\UART_v1.c"
  27  0010  0F88        	mov a,-120
  27  0011  0080     R  	mov _delay_2[0],a
  27  0012  0F13        	mov a,19
  27  0013  0080     R  	mov _delay_2[1],a
  27  0014              	fcall _delay
  28  001B              #line 28 "D:\Wade\Project\Tennis_Ball_Machine\Firmware\UART_v1\UART_v1.c"
  28  001B  30A7        	set [39].1
  29  001C              #line 29 "D:\Wade\Project\Tennis_Ball_Machine\Firmware\UART_v1\UART_v1.c"
  29  001C  0F88        	mov a,-120
  29  001D  0080     R  	mov _delay_2[0],a
  29  001E  0F13        	mov a,19
  29  001F  0080     R  	mov _delay_2[1],a
  29  0020              	fcall _delay
  30  0027              #line 30 "D:\Wade\Project\Tennis_Ball_Machine\Firmware\UART_v1\UART_v1.c"
  30  0027  34A7        	clr [39].1
  30  0028              _L24:
  44  0028              #line 44 "D:\Wade\Project\Tennis_Ball_Machine\Firmware\UART_v1\UART_v1.c"
  44  0028  0F41        	mov a,65
  44  0029              	fcall _Send_Data
  45  0030              #line 45 "D:\Wade\Project\Tennis_Ball_Machine\Firmware\UART_v1\UART_v1.c"
  45  0030  0F42        	mov a,66
  45  0031              	fcall _Send_Data
  46  0038              #line 46 "D:\Wade\Project\Tennis_Ball_Machine\Firmware\UART_v1\UART_v1.c"
  46  0038  0F43        	mov a,67
  46  0039              	fcall _Send_Data
"File: UART_v1.c     Assembler  Version HGASM0202      Page 7

  47  0040              #line 47 "D:\Wade\Project\Tennis_Ball_Machine\Firmware\UART_v1\UART_v1.c"
  47  0040  0F44        	mov a,68
  47  0041              	fcall _Send_Data
  48  0048              #line 48 "D:\Wade\Project\Tennis_Ball_Machine\Firmware\UART_v1\UART_v1.c"
  48  0048  3027        	set [39].0
  49  0049              #line 49 "D:\Wade\Project\Tennis_Ball_Machine\Firmware\UART_v1\UART_v1.c"
  49  0049  34A7        	clr [39].1
  50  004A              #line 50 "D:\Wade\Project\Tennis_Ball_Machine\Firmware\UART_v1\UART_v1.c"
  50  004A  0F10        	mov a,16
  50  004B  0080     R  	mov _delay_2[0],a
  50  004C  0F27        	mov a,39
  50  004D  0080     R  	mov _delay_2[1],a
  50  004E              	fcall _delay
  52  0055              #line 52 "D:\Wade\Project\Tennis_Ball_Machine\Firmware\UART_v1\UART_v1.c"
  52  0055  0F45        	mov a,69
  52  0056              	fcall _Send_Data
  53  005D              #line 53 "D:\Wade\Project\Tennis_Ball_Machine\Firmware\UART_v1\UART_v1.c"
  53  005D  3427        	clr [39].0
  54  005E              #line 54 "D:\Wade\Project\Tennis_Ball_Machine\Firmware\UART_v1\UART_v1.c"
  54  005E  30A7        	set [39].1
  55  005F              #line 55 "D:\Wade\Project\Tennis_Ball_Machine\Firmware\UART_v1\UART_v1.c"
  55  005F  0F10        	mov a,16
  55  0060  0080     R  	mov _delay_2[0],a
  55  0061  0F27        	mov a,39
  55  0062  0080     R  	mov _delay_2[1],a
  55  0063              	fcall _delay
  55  006A  2800     R  	jmp _L24
  55  006B  2800     R  	jmp $
  55  006C              _main endp
  55  006C              
  55  006C              @dummy endp
  55  006C              
  55  006C              #line 55 "D:\Wade\Project\Tennis_Ball_Machine\Firmware\UART_v1\UART_v1.c"
  55  006C              #pragma debug scope 1 1
  55  006C              public _kn
  55  0000              @HCCINIT	.section 'data'
   6  0000              #line 6 "D:\Wade\Project\Tennis_Ball_Machine\Firmware\UART_v1\UART_v1.c"
   6  0000              @HCCINIT_kn .section 'data'
   6  0000              _kn label byte
   6  0000              #pragma debug variable 10 1 _kn "kn"
   6  0000              	db 0
   6  0000              @ROMDATA_BASE .section inpage 'code'
   6  0000              	db 0
   6  0001              @HCCINIT_kn .section 'data'
   6  0001              	db 0
   6  0001              @ROMDATA_BASE .section inpage 'code'
   6  0001              	db 0
   6  0002              @HCCINIT_kn .section 'data'
   5  0002              #line 5 "D:\Wade\Project\Tennis_Ball_Machine\Firmware\UART_v1\UART_v1.c"
   5  0002              public _R_Data
   5  0000              @HCCINIT0_R_Data .section 'data'
   5  0000  0014[       _R_Data	db 20 dup(0)
            00
            ]
   5  0014              #pragma debug array 42 10 10 1
   5  0014              #pragma debug array 42 10 10 1
   5  0014              #pragma debug variable 42 1 _R_Data "R_Data"
   5  0014              
   5  0000              @HCCINIT .section 'data'
   5  0000              #pragma debug struct_end
"File: UART_v1.c     Assembler  Version HGASM0202      Page 8

   5  0000              #pragma debug struct_end
   5  0000              #pragma debug union_end
   5  0000              #pragma debug union_end
   5  0000              #pragma debug variable 44 1 ___intc0 "__intc0" 1
   5  0000              #pragma debug struct_end
   5  0000              #pragma debug struct_end
   5  0000              #pragma debug union_end
   5  0000              #pragma debug union_end
   5  0000              #pragma debug variable 46 1 ___intc3 "__intc3" 1
   5  0000              #pragma debug struct_end
   5  0000              #pragma debug struct_end
   5  0000              #pragma debug union_end
   5  0000              #pragma debug union_end
   5  0000              #pragma debug variable 48 1 ___pg "__pg" 1
   5  0000              #pragma debug struct_end
   5  0000              #pragma debug struct_end
   5  0000              #pragma debug union_end
   5  0000              #pragma debug union_end
   5  0000              #pragma debug variable 50 1 ___pgc "__pgc" 1
   5  0000              #pragma debug struct_end
   5  0000              #pragma debug struct_end
   5  0000              #pragma debug union_end
   5  0000              #pragma debug union_end
   5  0000              #pragma debug variable 52 1 ___mfi5 "__mfi5" 1
   5  0000              #pragma debug struct_end
   5  0000              #pragma debug struct_end
   5  0000              #pragma debug union_end
   5  0000              #pragma debug union_end
   5  0000              #pragma debug variable 54 1 ___scc "__scc" 1
   5  0000              #pragma debug struct_end
   5  0000              #pragma debug struct_end
   5  0000              #pragma debug union_end
   5  0000              #pragma debug union_end
   5  0000              #pragma debug variable 56 1 ___hircc "__hircc" 1
   5  0000              #pragma debug struct_end
   5  0000              #pragma debug struct_end
   5  0000              #pragma debug union_end
   5  0000              #pragma debug union_end
   5  0000              #pragma debug variable 58 1 ___wdtc "__wdtc" 1
   5  0000              #pragma debug struct_end
   5  0000              #pragma debug struct_end
   5  0000              #pragma debug union_end
   5  0000              #pragma debug union_end
   5  0000              #pragma debug variable 60 1 ___u0sr "__u0sr" 1
   5  0000              #pragma debug struct_end
   5  0000              #pragma debug struct_end
   5  0000              #pragma debug union_end
   5  0000              #pragma debug union_end
   5  0000              #pragma debug variable 62 1 ___u0cr1 "__u0cr1" 1
   5  0000              #pragma debug struct_end
   5  0000              #pragma debug struct_end
   5  0000              #pragma debug union_end
   5  0000              #pragma debug union_end
   5  0000              #pragma debug variable 64 1 ___u0cr2 "__u0cr2" 1
   5  0000              #pragma debug variable 8 1 ___txr_rxr0 "__txr_rxr0" 1
   5  0000              #pragma debug variable 8 1 ___brg0 "__brg0" 1
   5  0000              #pragma debug struct_end
   5  0000              #pragma debug struct_end
   5  0000              #pragma debug union_end
   5  0000              #pragma debug union_end
"File: UART_v1.c     Assembler  Version HGASM0202      Page 9

   5  0000              #pragma debug variable 66 1 ___pas1 "__pas1" 1
   5  0000              extern r1:byte
   5  0000              extern r2:byte
   5  0000              extern r3:byte
   5  0000              extern r4:byte
   5  0000              extern r5:byte
   5  0000              extern r6:byte
   5  0000              extern r7:byte
  18  0000              #line 18 "D:\Wade\Project\Tennis_Ball_Machine\Firmware\UART_v1\UART_v1.c"
  18  0000              @code .section at 0 'code'
  18  0000  1F0B        	clr bp
  18  0001  2800     R  	jmp _main_startup1
  18  0002              
  18  0002              
  18  0002              ; 
  18  0002              ; Generated by holtek-gcc v3.19, Tue Oct 25 14:54:47 2022
  18  0002              ; Rebuild 718
  18  0002              ; end of file


        0 Errors, 0