"File: Ultrasonic_Sensor_v1.c  Assembler  Version HGASM0202      Page 1


   1  0000              ; Generated by holtek-gcc v3.19, Fri Oct 28 22:53:36 2022
   2  0000              ; 
   3  0000              ; Configuration:
   4  0000              ;       with long instruction
   5  0000              ;       Multi-ROM, Multi-RAM
   6  0000              ;       bits_per_rom_unit:16
   7  0000              ;       with mp1
   8  0000              ;       with tbhp, address(0x9)
   9  0000              ;          Use tabrd-const
  10  0000              ;       
  11  0000              ; SFR address of long-instruction arch:
  12  0000              ;    mp0 = -1,1,0
  13  0000              ;    mp1 = 4,3,2
  14  0000              ;    mp2 = 14,13,12
  15  0000              ;    tbp = 9,7,8
  16  0000              ;    acc = 5
  17  0000              ;    pcl = 6
  18  0000              ;    status = 10
  19  0000              ;    bp = 11
  20  0000              ;    intc = 16
  21  0000              ;       
  22  0000              ;       
  23  0000              ; use 'tabrdc' instead of 'tabrd'
  24  0000              ;       
  25  0000              
  26  0000              #pragma translator "holtek-gcc 4.6.4" "3.19" "build 20130711"
  27  0000              ; Rebuild 718
  28  0000              
  29  0000              ir equ [2]
  30  0000              mp equ [3]
  31  0000              sbp equ [4]
  32  0000              acc equ [5]
  33  0000              bp equ [11]
  34  0000              tblp equ [7]
  35  0000              tbhp equ [9]
  36  0000              status equ [10]
  37  0000              c equ [10].0
  38  0000              ac equ [10].1
  39  0000              z equ [10].2
  40  0000              ov equ [10].3
  41  0000              cz equ [10].6
  42  0000              sc equ [10].7
  43  0000              intc equ [16]
  44  0000              mduwr0 equ [59h]
  45  0000              mduwr1 equ [5ah]
  46  0000              mduwr2 equ [5bh]
  47  0000              mduwr3 equ [5ch]
  48  0000              mduwr4 equ [5dh]
  49  0000              mduwr5 equ [5eh]
  50  0000              mduwrctrl equ [5fh]
  51  0000              
  52  0000              extern ra:byte
  53  0000              extern rb:byte
  54  0000              extern rc:byte
  55  0000              extern rd:byte
  56  0000              extern re:byte
  57  0000              extern rf:byte
  58  0000              extern rg:byte
  59  0000              extern rh:byte
"File: Ultrasonic_Sensor_v1.ASM  Assembler  Version HGASM0202      Page 2

  60  0000              extern _Crom2Prom:near
  61  0000              extern _Crom2PromNext:near
  62  0000              
  63  0000              RAMBANK 0 @BITDATASEC, @BITDATASEC1
  64  0000              @HCCINIT	.section 'data'
  65  0000              @HCCINIT0	.section 'data'
  66  0000              @BITDATASEC	 .section 'data'
  67  0000              @BITDATASEC1	 .section 'data'
  68  0000              
  69  0000              #pragma debug scope 1 1
  70  0000              	extern __DELAY3:near
  71  0000              	extern __DELAYX3:near
  72  0000              	extern __DELAYX6:near
  73  0000              	extern __DELAYY5:near
  74  0000              	extern __DELAYY3:near
  75  0000              	extern _builtin_holtek_delay_2:byte
  76  0000              ___ptm0al equ [74]
  77  0000              ___ptm0ah equ [75]
  78  0000              ___ptm0c0 equ [70]
  79  0000              ___mfi0 equ [51]
  80  0000              public _ten_us_delay
  81  0000              #pragma debug scope 2 1

  62  0000              #line 62 "D:\Wade\Project\Tennis_Ball_Machine\Firmware\Ultrasonic_Sensor_v1\Ultrasonic_Sensor_v1.c"
  62  0000              _ten_us_delay .section 'code'
  62  0000              _ten_us_delay proc
  64  0000              #line 64 "D:\Wade\Project\Tennis_Ball_Machine\Firmware\Ultrasonic_Sensor_v1\Ultrasonic_Sensor_v1.c"
  64  0000  0F06        	mov a,6
  64  0001  00CA        	mov [74],a
  64  0002  1F4B        	clr [75]
  65  0003              #line 65 "D:\Wade\Project\Tennis_Ball_Machine\Firmware\Ultrasonic_Sensor_v1\Ultrasonic_Sensor_v1.c"
  65  0003  31C6        	set [70].3
  65  0004              _L3:
  66  0004              #line 66 "D:\Wade\Project\Tennis_Ball_Machine\Firmware\Ultrasonic_Sensor_v1\Ultrasonic_Sensor_v1.c"
  66  0004  3AB3        	snz [51].5
  66  0005  2800     R  	jmp _L3
  67  0006              #line 67 "D:\Wade\Project\Tennis_Ball_Machine\Firmware\Ultrasonic_Sensor_v1\Ultrasonic_Sensor_v1.c"
  67  0006  36B3        	clr [51].5
  68  0007              #line 68 "D:\Wade\Project\Tennis_Ball_Machine\Firmware\Ultrasonic_Sensor_v1\Ultrasonic_Sensor_v1.c"
  68  0007  35C6        	clr [70].3
  68  0008  0003        	ret
  68  0009              _ten_us_delay endp
  68  0009              #line 68 "D:\Wade\Project\Tennis_Ball_Machine\Firmware\Ultrasonic_Sensor_v1\Ultrasonic_Sensor_v1.c"
  68  0009              #pragma debug scope 1 1
  68  0009              ___pas1 equ [334]
  68  0009              ___u0cr1 equ [273]
  68  0009              ___u0cr2 equ [274]
  68  0009              ___brg0 equ [276]
  68  0009              ___mfi5 equ [56]
  68  0009              ___intc3 equ [19]
  68  0009              ___intc0 equ [16]
  68  0009              public _UART_Setup
  68  0009              #pragma debug scope 3 1
  72  0009              #line 72 "D:\Wade\Project\Tennis_Ball_Machine\Firmware\Ultrasonic_Sensor_v1\Ultrasonic_Sensor_v1.c"
  72  0000              _UART_Setup .section 'code'
  72  0000              _UART_Setup proc
  73  0000              #line 73 "D:\Wade\Project\Tennis_Ball_Machine\Firmware\Ultrasonic_Sensor_v1\Ultrasonic_Sensor_v1.c"
  73  0000  0FF0        	mov a,240
  73  0001  80CE 0001   	lmov [334],a
  74  0003              #line 74 "D:\Wade\Project\Tennis_Ball_Machine\Firmware\Ultrasonic_Sensor_v1\Ultrasonic_Sensor_v1.c"
"File: Ultrasonic_Sensor_v1.c  Assembler  Version HGASM0202      Page 3

  74  0003  0F80        	mov a,128
  74  0004  8091 0001   	lmov [273],a
  75  0006              #line 75 "D:\Wade\Project\Tennis_Ball_Machine\Firmware\Ultrasonic_Sensor_v1\Ultrasonic_Sensor_v1.c"
  75  0006  0FC4        	mov a,196
  75  0007  8092 0001   	lmov [274],a
  76  0009              #line 76 "D:\Wade\Project\Tennis_Ball_Machine\Firmware\Ultrasonic_Sensor_v1\Ultrasonic_Sensor_v1.c"
  76  0009  0F0C        	mov a,12
  76  000A  8094 0001   	lmov [276],a
  77  000C              #line 77 "D:\Wade\Project\Tennis_Ball_Machine\Firmware\Ultrasonic_Sensor_v1\Ultrasonic_Sensor_v1.c"
  77  000C  3038        	set [56].0
  78  000D              #line 78 "D:\Wade\Project\Tennis_Ball_Machine\Firmware\Ultrasonic_Sensor_v1\Ultrasonic_Sensor_v1.c"
  78  000D  3638        	clr [56].4
  79  000E              #line 79 "D:\Wade\Project\Tennis_Ball_Machine\Firmware\Ultrasonic_Sensor_v1\Ultrasonic_Sensor_v1.c"
  79  000E  3193        	set [19].3
  80  000F              #line 80 "D:\Wade\Project\Tennis_Ball_Machine\Firmware\Ultrasonic_Sensor_v1\Ultrasonic_Sensor_v1.c"
  80  000F  3010        	set [16].0
  80  0010  0003        	ret
  80  0011              _UART_Setup endp
  80  0011              #line 80 "D:\Wade\Project\Tennis_Ball_Machine\Firmware\Ultrasonic_Sensor_v1\Ultrasonic_Sensor_v1.c"
  80  0011              #pragma debug scope 1 1
  80  0011              ___u0sr equ [272]
  80  0011              ___txr_rxr0 equ [275]
  80  0011              public _Send_Data
  80  0011              #pragma debug scope 4 1
  84  0011              #line 84 "D:\Wade\Project\Tennis_Ball_Machine\Firmware\Ultrasonic_Sensor_v1\Ultrasonic_Sensor_v1.c"
  84  0000              _Send_Data .section 'code'
  84  0000              _Send_Data proc
  84  0000  00              local _Send_Data_2 db 1 dup(?)	; 0,1
  84  0000  0080     R  	mov _Send_Data_2[0],a
  84  0001              #pragma debug variable 7 4 _Send_Data_2+0 "data"
  84  0001              _L8:
  85  0001              #line 85 "D:\Wade\Project\Tennis_Ball_Machine\Firmware\Ultrasonic_Sensor_v1\Ultrasonic_Sensor_v1.c"
  85  0001  B810 0001   	lsnz [272].0
  85  0003  2800     R  	jmp _L8
  86  0004              #line 86 "D:\Wade\Project\Tennis_Ball_Machine\Firmware\Ultrasonic_Sensor_v1\Ultrasonic_Sensor_v1.c"
  86  0004  0700     R  	mov a,_Send_Data_2[0]
  86  0005  8093 0001   	lmov [275],a
  86  0007              _L10:
  87  0007              #line 87 "D:\Wade\Project\Tennis_Ball_Machine\Firmware\Ultrasonic_Sensor_v1\Ultrasonic_Sensor_v1.c"
  87  0007  B890 0001   	lsnz [272].1
  87  0009  2800     R  	jmp _L10
  87  000A  0003        	ret
  87  000B              _Send_Data endp
  87  000B              #line 87 "D:\Wade\Project\Tennis_Ball_Machine\Firmware\Ultrasonic_Sensor_v1\Ultrasonic_Sensor_v1.c"
  87  000B              #pragma debug scope 1 1
  87  000B              public _delay
  87  000B              #pragma debug scope 5 1
  91  000B              #line 91 "D:\Wade\Project\Tennis_Ball_Machine\Firmware\Ultrasonic_Sensor_v1\Ultrasonic_Sensor_v1.c"
  91  0000              _delay .section 'code'
  91  0000              _delay proc
  91  0000              public _delay_2
  91  0000  0002[           local _delay_2 db 2 dup(?)	; 2,0
            00
            ]
  91  0002              #pragma debug variable 10 5 _delay_2+0 "var"
  93  0002              #line 93 "D:\Wade\Project\Tennis_Ball_Machine\Firmware\Ultrasonic_Sensor_v1\Ultrasonic_Sensor_v1.c"
  93  0000  1F00     E  	clr rb
  93  0001  1F00     E  	clr rc
  93  0002              _L12:
  93  0002              #line 93 "D:\Wade\Project\Tennis_Ball_Machine\Firmware\Ultrasonic_Sensor_v1\Ultrasonic_Sensor_v1.c"
"File: Ultrasonic_Sensor_v1.c  Assembler  Version HGASM0202      Page 4

  93  0002  0700     E  	mov a,rb
  93  0003  0200     R  	sub a,_delay_2[0]
  93  0004  0700     E  	mov a,rc
  93  0005  1200     R  	sbc a,_delay_2[1]
  93  0006  3F0A        	sz cz
  93  0007  2800     R  	jmp _L11
  93  0008  1F00     E  	clr ra
  93  0009              _L15:
  95  0009              #line 95 "D:\Wade\Project\Tennis_Ball_Machine\Firmware\Ultrasonic_Sensor_v1\Ultrasonic_Sensor_v1.c"
  95  0009              ;# 95 "D:\Wade\Project\Tennis_Ball_Machine\Firmware\Ultrasonic_Sensor_v1\Ultrasonic_Sensor_v1.c" 1
  95  0009  0000        	nop
  95  000A  1480     E  	inc ra
  94  000B              #line 94 "D:\Wade\Project\Tennis_Ball_Machine\Firmware\Ultrasonic_Sensor_v1\Ultrasonic_Sensor_v1.c"
  94  000B  0700     E  	mov a,ra
  94  000C  0A19        	sub a,25
  94  000D  390A        	snz z
  94  000E  2800     R  	jmp _L15
  93  000F              #line 93 "D:\Wade\Project\Tennis_Ball_Machine\Firmware\Ultrasonic_Sensor_v1\Ultrasonic_Sensor_v1.c"
  93  000F  1480     E  	inc rb
  93  0010  3D0A        	sz z
  93  0011  1480     E  	inc rc
  93  0012  2800     R  	jmp _L12
  93  0013              _L11:
  93  0013  0003        	ret
  93  0014              _delay endp
  93  0014              #line 93 "D:\Wade\Project\Tennis_Ball_Machine\Firmware\Ultrasonic_Sensor_v1\Ultrasonic_Sensor_v1.c"
  93  0014              #pragma debug scope 1 1
  93  0014              ___wdtc equ [62]
  93  0014              ___ptm0c1 equ [71]
  93  0014              ___intc1 equ [17]
  93  0014              ___pc equ [27]
  93  0014              ___pcc equ [28]
  93  0014              public _main
  93  0014              #pragma debug scope 6 1
  16  0014              #line 16 "D:\Wade\Project\Tennis_Ball_Machine\Firmware\Ultrasonic_Sensor_v1\Ultrasonic_Sensor_v1.c"
  16  0014              IFDEF WITH_DEFAULT_STARTUP
  16  0014              extern _main_initial0:near
  16  0014              extern _main_startup:near
  16  0014              ENDIF
  16  0014              
  16  0014              ROMBANK 0 @start
  16  0000              @start .section com_l 'code'
  16  0000              _main_startup1:
  16  0000              @start .section com_e 'code'
  16  0000  0F00     R  	mov a,bank _main
  16  0001  008B        	mov bp,a
  16  0002  2800     R  	jmp _main
  16  0003              
  16  0000              _main .section 'code'
  16  0000              _main proc
  16  0000  0004[           local _main_2 db 4 dup(?)
            00
            ]
  16  0004  00              local cr1 dbit
  16  0005              #pragma debug variable 13 6 _main_2+0 "duration"
  16  0005              #pragma debug variable 2 6 cr1 "c"
  17  0005              #line 17 "D:\Wade\Project\Tennis_Ball_Machine\Firmware\Ultrasonic_Sensor_v1\Ultrasonic_Sensor_v1.c"
  17  0000  0FAB        	mov a,171
  17  0001  00BE        	mov [62],a
  19  0002              #line 19 "D:\Wade\Project\Tennis_Ball_Machine\Firmware\Ultrasonic_Sensor_v1\Ultrasonic_Sensor_v1.c"
"File: Ultrasonic_Sensor_v1.c  Assembler  Version HGASM0202      Page 5

  19  0002              	fcall _UART_Setup
  21  0009              #line 21 "D:\Wade\Project\Tennis_Ball_Machine\Firmware\Ultrasonic_Sensor_v1\Ultrasonic_Sensor_v1.c"
  21  0009  0F20        	mov a,32
  21  000A  00C6        	mov [70],a
  22  000B              #line 22 "D:\Wade\Project\Tennis_Ball_Machine\Firmware\Ultrasonic_Sensor_v1\Ultrasonic_Sensor_v1.c"
  22  000B  0FC1        	mov a,193
  22  000C  00C7        	mov [71],a
  23  000D              #line 23 "D:\Wade\Project\Tennis_Ball_Machine\Firmware\Ultrasonic_Sensor_v1\Ultrasonic_Sensor_v1.c"
  23  000D  30B3        	set [51].1
  24  000E              #line 24 "D:\Wade\Project\Tennis_Ball_Machine\Firmware\Ultrasonic_Sensor_v1\Ultrasonic_Sensor_v1.c"
  24  000E  36B3        	clr [51].5
  25  000F              #line 25 "D:\Wade\Project\Tennis_Ball_Machine\Firmware\Ultrasonic_Sensor_v1\Ultrasonic_Sensor_v1.c"
  25  000F  3091        	set [17].1
  26  0010              #line 26 "D:\Wade\Project\Tennis_Ball_Machine\Firmware\Ultrasonic_Sensor_v1\Ultrasonic_Sensor_v1.c"
  26  0010  3010        	set [16].0
  28  0011              #line 28 "D:\Wade\Project\Tennis_Ball_Machine\Firmware\Ultrasonic_Sensor_v1\Ultrasonic_Sensor_v1.c"
  28  0011  341B        	clr [27].0
  29  0012              #line 29 "D:\Wade\Project\Tennis_Ball_Machine\Firmware\Ultrasonic_Sensor_v1\Ultrasonic_Sensor_v1.c"
  29  0012  341C        	clr [28].0
  30  0013              #line 30 "D:\Wade\Project\Tennis_Ball_Machine\Firmware\Ultrasonic_Sensor_v1\Ultrasonic_Sensor_v1.c"
  30  0013  309C        	set [28].1
  31  0014              #line 31 "D:\Wade\Project\Tennis_Ball_Machine\Firmware\Ultrasonic_Sensor_v1\Ultrasonic_Sensor_v1.c"
  31  0014  0F4B        	mov a,75
  31  0015              	fcall _Send_Data
  32  001C              #line 32 "D:\Wade\Project\Tennis_Ball_Machine\Firmware\Ultrasonic_Sensor_v1\Ultrasonic_Sensor_v1.c"
  32  001C  0F88        	mov a,-120
  32  001D  0080     R  	mov _delay_2[0],a
  32  001E  0F13        	mov a,19
  32  001F  0080     R  	mov _delay_2[1],a
  32  0020              	fcall _delay
  35  0027              #line 35 "D:\Wade\Project\Tennis_Ball_Machine\Firmware\Ultrasonic_Sensor_v1\Ultrasonic_Sensor_v1.c"
  35  0027  3400     R  	clr cr1
  35  0028              _L21:
  38  0028              #line 38 "D:\Wade\Project\Tennis_Ball_Machine\Firmware\Ultrasonic_Sensor_v1\Ultrasonic_Sensor_v1.c"
  38  0028  301B        	set [27].0
  39  0029              #line 39 "D:\Wade\Project\Tennis_Ball_Machine\Firmware\Ultrasonic_Sensor_v1\Ultrasonic_Sensor_v1.c"
  39  0029              	fcall _ten_us_delay
  40  0030              #line 40 "D:\Wade\Project\Tennis_Ball_Machine\Firmware\Ultrasonic_Sensor_v1\Ultrasonic_Sensor_v1.c"
  40  0030  341B        	clr [27].0
  42  0031              #line 42 "D:\Wade\Project\Tennis_Ball_Machine\Firmware\Ultrasonic_Sensor_v1\Ultrasonic_Sensor_v1.c"
  42  0031  0F53        	mov a,83
  42  0032              	fcall _Send_Data
  43  0039              #line 43 "D:\Wade\Project\Tennis_Ball_Machine\Firmware\Ultrasonic_Sensor_v1\Ultrasonic_Sensor_v1.c"
  43  0039  0F01        	mov a,1
  43  003A  00CA        	mov [74],a
  43  003B  1F4B        	clr [75]
  44  003C              #line 44 "D:\Wade\Project\Tennis_Ball_Machine\Firmware\Ultrasonic_Sensor_v1\Ultrasonic_Sensor_v1.c"
  44  003C  36B3        	clr [51].5
  45  003D              #line 45 "D:\Wade\Project\Tennis_Ball_Machine\Firmware\Ultrasonic_Sensor_v1\Ultrasonic_Sensor_v1.c"
  45  003D  31C6        	set [70].3
  46  003E              #line 46 "D:\Wade\Project\Tennis_Ball_Machine\Firmware\Ultrasonic_Sensor_v1\Ultrasonic_Sensor_v1.c"
  46  003E  1F00     R  	clr _main_2[0]
  46  003F  1F00     R  	clr _main_2[1]
  46  0040  1F00     R  	clr _main_2[2]
  46  0041  1F00     R  	clr _main_2[3]
  46  0042              _L17:
  46  0042  3C00     R  	sz cr1
  46  0043  2800     R  	jmp _L22
  46  0044              _L20:
  48  0044              #line 48 "D:\Wade\Project\Tennis_Ball_Machine\Firmware\Ultrasonic_Sensor_v1\Ultrasonic_Sensor_v1.c"
"File: Ultrasonic_Sensor_v1.c  Assembler  Version HGASM0202      Page 6

  48  0044  3EB3        	sz [51].5
  48  0045  2800     R  	jmp _L23
  49  0046              #line 49 "D:\Wade\Project\Tennis_Ball_Machine\Firmware\Ultrasonic_Sensor_v1\Ultrasonic_Sensor_v1.c"
  49  0046  1F00     E  	clr ra
  49  0047  3C9B        	sz [27].1
  49  0048  1480     E  	inc ra
  49  0049  3400     R  	clr cr1
  49  004A  3C00     E  	sz ra.0
  49  004B  3000     R  	set cr1
  49  004C  2800     R  	jmp _L20
  49  004D              _L23:
  50  004D              #line 50 "D:\Wade\Project\Tennis_Ball_Machine\Firmware\Ultrasonic_Sensor_v1\Ultrasonic_Sensor_v1.c"
  50  004D  36B3        	clr [51].5
  51  004E              #line 51 "D:\Wade\Project\Tennis_Ball_Machine\Firmware\Ultrasonic_Sensor_v1\Ultrasonic_Sensor_v1.c"
  51  004E  0F02        	mov a,2
  51  004F  0380     R  	addm a,_main_2[0]
  51  0050  0F00        	mov a,0
  51  0051  1380     R  	adcm a,_main_2[1]
  51  0052  1380     R  	adcm a,_main_2[2]
  51  0053  1380     R  	adcm a,_main_2[3]
  51  0054  2800     R  	jmp _L17
  51  0055              _L22:
  53  0055              #line 53 "D:\Wade\Project\Tennis_Ball_Machine\Firmware\Ultrasonic_Sensor_v1\Ultrasonic_Sensor_v1.c"
  53  0055  35C6        	clr [70].3
  54  0056              #line 54 "D:\Wade\Project\Tennis_Ball_Machine\Firmware\Ultrasonic_Sensor_v1\Ultrasonic_Sensor_v1.c"
  54  0056  0F44        	mov a,68
  54  0057              	fcall _Send_Data
  55  005E              #line 55 "D:\Wade\Project\Tennis_Ball_Machine\Firmware\Ultrasonic_Sensor_v1\Ultrasonic_Sensor_v1.c"
  55  005E  0700     R  	mov a,_main_2[0]
  55  005F              	fcall _Send_Data
  57  0066              #line 57 "D:\Wade\Project\Tennis_Ball_Machine\Firmware\Ultrasonic_Sensor_v1\Ultrasonic_Sensor_v1.c"
  57  0066  0F10        	mov a,16
  57  0067  0080     R  	mov _delay_2[0],a
  57  0068  0F27        	mov a,39
  57  0069  0080     R  	mov _delay_2[1],a
  57  006A              	fcall _delay
  57  0071  3000     R  	set cr1
  58  0072              #line 58 "D:\Wade\Project\Tennis_Ball_Machine\Firmware\Ultrasonic_Sensor_v1\Ultrasonic_Sensor_v1.c"
  58  0072  2800     R  	jmp _L21
  58  0073  2800     R  	jmp $
  58  0074              _main endp
  58  0074              
  58  0074              @dummy endp
  58  0074              
  58  0074              #line 58 "D:\Wade\Project\Tennis_Ball_Machine\Firmware\Ultrasonic_Sensor_v1\Ultrasonic_Sensor_v1.c"
  58  0074              #pragma debug scope 1 1
  58  0074              #pragma debug struct_end
  58  0074              #pragma debug struct_end
  58  0074              #pragma debug union_end
  58  0074              #pragma debug union_end
  58  0074              #pragma debug variable 43 1 ___intc0 "__intc0" 1
  58  0074              #pragma debug struct_end
  58  0074              #pragma debug struct_end
  58  0074              #pragma debug union_end
  58  0074              #pragma debug union_end
  58  0074              #pragma debug variable 45 1 ___intc1 "__intc1" 1
  58  0074              #pragma debug struct_end
  58  0074              #pragma debug struct_end
  58  0074              #pragma debug union_end
  58  0074              #pragma debug union_end
"File: Ultrasonic_Sensor_v1.c  Assembler  Version HGASM0202      Page 7

  58  0074              #pragma debug variable 47 1 ___intc3 "__intc3" 1
  58  0074              #pragma debug struct_end
  58  0074              #pragma debug struct_end
  58  0074              #pragma debug union_end
  58  0074              #pragma debug union_end
  58  0074              #pragma debug variable 49 1 ___pc "__pc" 1
  58  0074              #pragma debug struct_end
  58  0074              #pragma debug struct_end
  58  0074              #pragma debug union_end
  58  0074              #pragma debug union_end
  58  0074              #pragma debug variable 51 1 ___pcc "__pcc" 1
  58  0074              #pragma debug struct_end
  58  0074              #pragma debug struct_end
  58  0074              #pragma debug union_end
  58  0074              #pragma debug union_end
  58  0074              #pragma debug variable 53 1 ___mfi0 "__mfi0" 1
  58  0074              #pragma debug struct_end
  58  0074              #pragma debug struct_end
  58  0074              #pragma debug union_end
  58  0074              #pragma debug union_end
  58  0074              #pragma debug variable 55 1 ___mfi5 "__mfi5" 1
  58  0074              #pragma debug struct_end
  58  0074              #pragma debug struct_end
  58  0074              #pragma debug union_end
  58  0074              #pragma debug union_end
  58  0074              #pragma debug variable 57 1 ___wdtc "__wdtc" 1
  58  0074              #pragma debug struct_end
  58  0074              #pragma debug struct_end
  58  0074              #pragma debug union_end
  58  0074              #pragma debug union_end
  58  0074              #pragma debug variable 59 1 ___ptm0c0 "__ptm0c0" 1
  58  0074              #pragma debug struct_end
  58  0074              #pragma debug struct_end
  58  0074              #pragma debug union_end
  58  0074              #pragma debug union_end
  58  0074              #pragma debug variable 61 1 ___ptm0c1 "__ptm0c1" 1
  58  0074              #pragma debug variable 8 1 ___ptm0al "__ptm0al" 1
  58  0074              #pragma debug variable 8 1 ___ptm0ah "__ptm0ah" 1
  58  0074              #pragma debug struct_end
  58  0074              #pragma debug struct_end
  58  0074              #pragma debug union_end
  58  0074              #pragma debug union_end
  58  0074              #pragma debug variable 63 1 ___u0sr "__u0sr" 1
  58  0074              #pragma debug struct_end
  58  0074              #pragma debug struct_end
  58  0074              #pragma debug union_end
  58  0074              #pragma debug union_end
  58  0074              #pragma debug variable 65 1 ___u0cr1 "__u0cr1" 1
  58  0074              #pragma debug struct_end
  58  0074              #pragma debug struct_end
  58  0074              #pragma debug union_end
  58  0074              #pragma debug union_end
  58  0074              #pragma debug variable 67 1 ___u0cr2 "__u0cr2" 1
  58  0074              #pragma debug variable 8 1 ___txr_rxr0 "__txr_rxr0" 1
  58  0074              #pragma debug variable 8 1 ___brg0 "__brg0" 1
  58  0074              #pragma debug struct_end
  58  0074              #pragma debug struct_end
  58  0074              #pragma debug union_end
  58  0074              #pragma debug union_end
  58  0074              #pragma debug variable 69 1 ___pas1 "__pas1" 1
"File: Ultrasonic_Sensor_v1.c  Assembler  Version HGASM0202      Page 8

  16  0074              #line 16 "D:\Wade\Project\Tennis_Ball_Machine\Firmware\Ultrasonic_Sensor_v1\Ultrasonic_Sensor_v1.c"
  16  0000              @code .section at 0 'code'
  16  0000  1F0B        	clr bp
  16  0001  2800     R  	jmp _main_startup1
  16  0002              
  16  0002              
  16  0002              ; 
  16  0002              ; Generated by holtek-gcc v3.19, Fri Oct 28 22:53:36 2022
  16  0002              ; Rebuild 718
  16  0002              ; end of file


        0 Errors, 0